ccopy_reg
_reconstructor
p0
(csklearn.preprocessing.data
StandardScaler
p1
c__builtin__
object
p2
Ntp3
Rp4
(dp5
S'mean_'
p6
cnumpy.core.multiarray
_reconstruct
p7
(cnumpy
ndarray
p8
(I0
tp9
S'b'
p10
tp11
Rp12
(I1
(I3
tp13
cnumpy
dtype
p14
(S'f8'
p15
I0
I1
tp16
Rp17
(I3
S'<'
p18
NNNI-1
I-1
I0
tp19
bI00
S'\xff\x02\x99\xe3FX\xf0\xbf\x8e\xf6\xe4NKp\xe9?\xa3\x05.\xa6\xfdd\x08@'
p20
tp21
bsS'with_mean'
p22
I01
sS'var_'
p23
g7
(g8
(I0
tp24
g10
tp25
Rp26
(I1
(I3
tp27
g17
I00
S'\x07\xcf\x96[\x8d\x1c\xc9?h\xc7a\xae,`\xe3?\x0b"A_\xa5\xce\xf5?'
p28
tp29
bsS'scale_'
p30
g7
(g8
(I0
tp31
g10
tp32
Rp33
(I1
(I3
tp34
g17
I00
S'=\xa3>2\xe8X\xdc?\x7f,m\xf3u\xe6\xe8?^\xae \x12\xe5\xad\xf2?'
p35
tp36
bsS'with_std'
p37
I01
sS'n_samples_seen_'
p38
I4000
sS'_sklearn_version'
p39
S'0.19.1'
p40
sS'copy'
p41
I01
sb.