(dp1
S'search_time'
p2
(lp3
(lp4
F13.169002056121826
aI-1
aa(lp5
F22.172150135040283
aI-1
aa(lp6
F28.820789098739624
aI-1
aa(lp7
F37.020940065383911
aI-1
aa(lp8
F44.238297939300537
aI-1
aa(lp9
F51.671196937561035
aI-1
aa(lp10
F63.761743068695068
aI-1
aa(lp11
F73.287749052047729
aI-1
aa(lp12
F80.802335023880005
aI-1
aa(lp13
F90.873000860214233
aI-1
aa(lp14
F106.74580979347229
aI-1
aa(lp15
F128.55909585952759
aI-1
aa(lp16
F157.57130193710327
aI-1
aa(lp17
F189.61173295974731
aI-1
aa(lp18
F218.24155116081238
aI-1
aa(lp19
F229.55432319641113
aI-1
aa(lp20
F259.93179416656494
aI-1
aa(lp21
F269.19051599502563
aI-1
aa(lp22
F278.00714111328125
aI-1
aa(lp23
F294.46604514122009
aI-1
aa(lp24
F302.20493030548096
aI-1
aa(lp25
F310.39889430999756
aI-1
aa(lp26
F333.51895523071289
aI-1
aa(lp27
F358.48533940315247
aI-1
aa(lp28
F399.71574926376343
aI-1
aa(lp29
F1011.464791059494
aI-1
aa(lp30
F1019.6481239795685
aI-1
aa(lp31
F2153.5726430416107
aI-1
aa(lp32
F2161.9733328819275
aI-1
aa(lp33
F2196.6262509822845
aI-1
aa(lp34
F2231.269336938858
aI-1
aa(lp35
F2260.4807879924774
aI-1
aa(lp36
F2292.2386119365692
aI-1
aa(lp37
F2321.6017158031464
aI-1
aa(lp38
F2334.6396987438202
aI-1
aa(lp39
F2343.6552455425262
aI-1
aa(lp40
F2354.5680506229401
aI-1
aa(lp41
F2375.0485565662384
aI-1
aa(lp42
F2404.7090904712677
aI-1
aa(lp43
F2416.1888346672058
aI-1
aa(lp44
F2425.5857634544373
aI-1
aa(lp45
F2438.5895793437958
aI-1
aa(lp46
F2451.7863123416901
aI-1
aa(lp47
F2482.6169753074646
aI-1
aa(lp48
F2494.8681211471558
aI-1
aa(lp49
F2505.5226631164551
aI-1
aa(lp50
F2538.6166870594025
aI-1
aa(lp51
F2573.8810379505157
aI-1
aa(lp52
F2595.3381690979004
aI-1
aa(lp53
F2607.8684940338135
aI-1
aa(lp54
F2640.595794916153
aI-1
aa(lp55
F2652.7196087837219
aI-1
aa(lp56
F2662.2383577823639
aI-1
aa(lp57
F2670.9180808067322
aI-1
aa(lp58
F2712.3457367420197
aI-1
aa(lp59
F2722.5555026531219
aI-1
aa(lp60
F2737.883850812912
aI-1
aa(lp61
F2755.1663019657135
aI-1
aa(lp62
F2763.1486279964447
aI-1
aa(lp63
F2799.0134129524231
aI-1
aa(lp64
F2809.3904750347137
aI-1
aa(lp65
F2843.4061391353607
aI-1
aa(lp66
F2871.3101451396942
aI-1
aa(lp67
F2903.3668320178986
aI-1
aa(lp68
F2912.0677530765533
aI-1
aa(lp69
F2918.5641679763794
aI-1
aa(lp70
F2929.0719509124756
aI-1
aa(lp71
F2934.827006816864
aI-1
aa(lp72
F2941.1001627445221
aI-1
aa(lp73
F2949.292870759964
aI-1
aa(lp74
F2955.8729887008667
aI-1
aa(lp75
F2963.0210485458374
aI-1
aa(lp76
F2969.6024076938629
aI-1
aa(lp77
F2981.6879456043243
aI-1
aa(lp78
F2991.9718165397644
aI-1
aa(lp79
F3008.6328585147858
aI-1
aa(lp80
F3020.8191936016083
aI-1
aa(lp81
F3030.1376516819
aI-1
aa(lp82
F3039.5400936603546
aI0
aa(lp83
F3053.3655626773834
aI0
aa(lp84
F3059.6499297618866
aI0
aa(lp85
F3072.4143948554993
aI0
aa(lp86
F3088.6207568645477
aI0
aa(lp87
F3098.6276209354401
aI0
aa(lp88
F3110.5823159217834
aI0
aa(lp89
F3118.4799418449402
aI0
aa(lp90
F3135.7762718200684
aI0
aa(lp91
F3142.1493248939514
aI0
aa(lp92
F3157.8605670928955
aI0
aa(lp93
F3165.9333231449127
aI0
aa(lp94
F3172.4819362163544
aI0
aa(lp95
F3188.5121741294861
aI0
aa(lp96
F3204.5184872150421
aI0
aa(lp97
F3214.3223841190338
aI0
aa(lp98
F3229.5810191631317
aI0
aa(lp99
F3244.1099500656128
aI0
aa(lp100
F3255.3294649124146
aI0
aa(lp101
F3273.7099907398224
aI0
aa(lp102
F3282.1920237541199
aI0
aa(lp103
F3292.2940895557404
aI0
aasS'plan'
p104
Ns.