(dp1
S'search_time'
p2
(lp3
(lp4
F8.2709519863128662
aI-2
aa(lp5
F15.795805931091309
aI-2
aa(lp6
F27.837437868118286
aI-2
aa(lp7
F38.143577814102173
aI-1
aa(lp8
F46.495434761047363
aI-1
aa(lp9
F70.42622971534729
aI0
aa(lp10
F77.540734767913818
aI0
aa(lp11
F102.26076674461365
aI0
aa(lp12
F116.38123679161072
aI0
aa(lp13
F126.83220267295837
aI0
aa(lp14
F136.77568578720093
aI0
aa(lp15
F154.66376090049744
aI0
aa(lp16
F164.13221979141235
aI0
aa(lp17
F177.58540177345276
aI0
aa(lp18
F193.2241108417511
aI0
aa(lp19
F216.1602897644043
aI0
aa(lp20
F223.57114481925964
aI0
aa(lp21
F230.6134557723999
aI0
aa(lp22
F244.40797781944275
aI0
aa(lp23
F254.57600784301758
aI0
aa(lp24
F271.8030219078064
aI0
aa(lp25
F285.43280291557312
aI0
aa(lp26
F306.91279602050781
aI0
aa(lp27
F314.27776098251343
aI0
aa(lp28
F325.7788360118866
aI0
aa(lp29
F338.18710708618164
aI0
aa(lp30
F361.67329096794128
aI0
aa(lp31
F369.42204403877258
aI0
aa(lp32
F389.41162800788879
aI0
aa(lp33
F412.48032093048096
aI0
aa(lp34
F420.79191589355469
aI0
aa(lp35
F442.16955494880676
aI0
aa(lp36
F453.69680595397949
aI0
aa(lp37
F466.47603988647461
aI0
aa(lp38
F475.56711292266846
aI0
aa(lp39
F489.16615104675293
aI0
aa(lp40
F511.56470203399658
aI0
aa(lp41
F518.3547511100769
aI0
aa(lp42
F536.37827229499817
aI0
aa(lp43
F545.71540117263794
aI0
aa(lp44
F555.64308595657349
aI0
aa(lp45
F565.37567496299744
aI0
aa(lp46
F578.91313290596008
aI0
aa(lp47
F605.52478885650635
aI0
aa(lp48
F616.21968388557434
aI0
aa(lp49
F627.25174903869629
aI0
aa(lp50
F651.41056489944458
aI0
aa(lp51
F658.66638803482056
aI0
aa(lp52
F678.24179315567017
aI0
aa(lp53
F700.0813901424408
aI0
aa(lp54
F722.06684708595276
aI0
aa(lp55
F742.28126001358032
aI0
aa(lp56
F755.66204404830933
aI0
aa(lp57
F766.15898895263672
aI0
aa(lp58
F775.28444981575012
aI0
aa(lp59
F791.03878593444824
aI0
aa(lp60
F816.85195994377136
aI0
aa(lp61
F844.51614499092102
aI0
aa(lp62
F856.97244787216187
aI0
aa(lp63
F879.66213989257812
aI0
aa(lp64
F892.89124202728271
aI0
aa(lp65
F902.92708587646484
aI0
aa(lp66
F922.62203979492188
aI0
aa(lp67
F947.23422265052795
aI0
aa(lp68
F955.79789161682129
aI0
aa(lp69
F966.18543457984924
aI0
aa(lp70
F977.69715070724487
aI0
aa(lp71
F987.73478770256042
aI0
aa(lp72
F996.35407972335815
aI0
aa(lp73
F1003.968377828598
aI0
aa(lp74
F1011.2841038703918
aI0
aa(lp75
F1020.2034239768982
aI0
aa(lp76
F1033.5162570476532
aI0
aa(lp77
F1048.1825580596924
aI0
aa(lp78
F1063.6229381561279
aI0
aa(lp79
F1073.7841901779175
aI0
aa(lp80
F1082.2584671974182
aI0
aa(lp81
F1088.1759431362152
aI0
aa(lp82
F1096.909970998764
aI0
aa(lp83
F1103.7888848781586
aI0
aa(lp84
F1113.3709897994995
aI0
aa(lp85
F1121.8850519657135
aI0
aa(lp86
F1129.3409798145294
aI0
aa(lp87
F1138.0439958572388
aI0
aa(lp88
F1155.0856368541718
aI0
aa(lp89
F1171.3323979377747
aI0
aa(lp90
F1185.0265390872955
aI0
aa(lp91
F1199.2807290554047
aI0
aa(lp92
F1209.0061130523682
aI0
aa(lp93
F1221.4397900104523
aI0
aa(lp94
F1229.7016320228577
aI0
aa(lp95
F1237.8205142021179
aI0
aa(lp96
F1249.7060153484344
aI0
aa(lp97
F1262.0054574012756
aI0
aa(lp98
F1276.988721370697
aI1
aa(lp99
F1289.548769235611
aI1
aa(lp100
F1301.7014632225037
aI1
aa(lp101
F1313.3013243675232
aI1
aa(lp102
F1321.1840064525604
aI1
aa(lp103
F1337.4891774654388
aI1
aasS'plan'
p104
Ns.