(dp1
S'search_time'
p2
(lp3
(lp4
F8.7028429508209229
aI-2
aa(lp5
F17.654912948608398
aI-2
aa(lp6
F25.592269897460938
aI-2
aa(lp7
F35.098728895187378
aI-2
aa(lp8
F41.659686088562012
aI-2
aa(lp9
F49.654058933258057
aI-2
aa(lp10
F58.770019054412842
aI-1
aa(lp11
F68.09367299079895
aI-1
aa(lp12
F76.057458162307739
aI-1
aa(lp13
F107.47261905670166
aI-1
aa(lp14
F116.30240392684937
aI-1
aa(lp15
F123.47540497779846
aI-1
aa(lp16
F131.6982090473175
aI-1
aa(lp17
F156.57934617996216
aI-1
aa(lp18
F165.66922616958618
aI-1
aa(lp19
F177.50929522514343
aI-1
aa(lp20
F188.80277919769287
aI-1
aa(lp21
F199.55791616439819
aI-1
aa(lp22
F213.1031391620636
aI-1
aa(lp23
F219.40751218795776
aI-1
aa(lp24
F231.33508920669556
aI-1
aa(lp25
F242.45750021934509
aI-1
aa(lp26
F251.21729731559753
aI-1
aa(lp27
F279.57126235961914
aI-1
aa(lp28
F301.03966736793518
aI-1
aa(lp29
F308.8990433216095
aI-1
aa(lp30
F338.31095623970032
aI-1
aa(lp31
F349.31624031066895
aI-1
aa(lp32
F363.06562733650208
aI-1
aa(lp33
F371.4354453086853
aI-1
aa(lp34
F378.1453583240509
aI-1
aa(lp35
F385.98584318161011
aI-1
aa(lp36
F409.22033500671387
aI-1
aa(lp37
F423.17020702362061
aI-1
aa(lp38
F452.48613500595093
aI-1
aa(lp39
F461.25531411170959
aI-1
aa(lp40
F467.77876710891724
aI-1
aa(lp41
F484.53526401519775
aI1
aa(lp42
F491.66849303245544
aI1
aa(lp43
F509.02051305770874
aI1
aa(lp44
F520.02129888534546
aI1
aa(lp45
F546.87860608100891
aI1
aa(lp46
F576.4014790058136
aI1
aa(lp47
F583.82806921005249
aI1
aa(lp48
F592.78486037254333
aI1
aa(lp49
F600.23391723632812
aI1
aa(lp50
F606.60969209671021
aI1
aa(lp51
F613.70096206665039
aI1
aa(lp52
F621.86496019363403
aI1
aa(lp53
F630.91918921470642
aI1
aa(lp54
F639.58907508850098
aI1
aa(lp55
F665.40719199180603
aI1
aa(lp56
F672.17086791992188
aI1
aa(lp57
F694.68367791175842
aI1
aa(lp58
F725.9635899066925
aI1
aa(lp59
F734.10020589828491
aI1
aa(lp60
F741.03190493583679
aI1
aa(lp61
F769.69145393371582
aI1
aa(lp62
F780.46701693534851
aI1
aa(lp63
F803.1577570438385
aI1
aa(lp64
F837.07275605201721
aI1
aa(lp65
F844.39665102958679
aI1
aa(lp66
F873.99734306335449
aI1
aa(lp67
F906.63779807090759
aI1
aa(lp68
F913.09236311912537
aI1
aa(lp69
F919.19269418716431
aI1
aa(lp70
F928.14726400375366
aI1
aa(lp71
F936.36957597732544
aI1
aa(lp72
F943.21837401390076
aI1
aa(lp73
F955.93034696578979
aI1
aa(lp74
F972.18272590637207
aI1
aa(lp75
F979.87089991569519
aI1
aa(lp76
F997.456130027771
aI1
aa(lp77
F1005.3614611625671
aI1
aa(lp78
F1020.9368352890015
aI1
aa(lp79
F1035.2342073917389
aI1
aa(lp80
F1045.4609155654907
aI1
aa(lp81
F1056.4681334495544
aI1
aa(lp82
F1071.6745383739471
aI1
aa(lp83
F1079.1905615329742
aI1
aa(lp84
F1085.3795125484467
aI1
aa(lp85
F1102.5428955554962
aI1
aa(lp86
F1116.8091514110565
aI1
aa(lp87
F1131.60666847229
aI1
aa(lp88
F1138.2359855175018
aI1
aa(lp89
F1146.3985624313354
aI1
aa(lp90
F1155.3164744377136
aI1
aa(lp91
F1172.6594634056091
aI1
aa(lp92
F1180.2201743125916
aI1
aa(lp93
F1195.4370872974396
aI1
aa(lp94
F1203.271692276001
aI1
aa(lp95
F1217.9981112480164
aI1
aa(lp96
F1232.6816143989563
aI1
aa(lp97
F1241.6011693477631
aI1
aa(lp98
F1249.2585964202881
aI1
aa(lp99
F1258.4693992137909
aI1
aa(lp100
F1271.6273920536041
aI1
aa(lp101
F1278.2490701675415
aI1
aa(lp102
F1292.9190201759338
aI1
aa(lp103
F1302.5274512767792
aI1
aasS'plan'
p104
Ns.