(dp1
S'search_time'
p2
(lp3
(lp4
F11.627195835113525
aI-2
aa(lp5
F20.05053186416626
aI-2
aa(lp6
F29.666436910629272
aI-2
aa(lp7
F37.110245943069458
aI-2
aa(lp8
F45.422579765319824
aI-2
aa(lp9
F52.507385730743408
aI-1
aa(lp10
F64.614069700241089
aI-1
aa(lp11
F75.366620779037476
aI-1
aa(lp12
F88.38783073425293
aI0
aa(lp13
F106.25125455856323
aI0
aa(lp14
F114.07323956489563
aI0
aa(lp15
F123.75680351257324
aI0
aa(lp16
F151.14242744445801
aI0
aa(lp17
F175.49718141555786
aI0
aa(lp18
F193.63982343673706
aI0
aa(lp19
F202.63964533805847
aI0
aa(lp20
F210.63862228393555
aI0
aa(lp21
F228.44557929039001
aI0
aa(lp22
F238.50722146034241
aI0
aa(lp23
F249.71463441848755
aI0
aa(lp24
F257.25269055366516
aI0
aa(lp25
F265.11825966835022
aI0
aa(lp26
F275.99980068206787
aI0
aa(lp27
F301.50403571128845
aI0
aa(lp28
F321.71980357170105
aI0
aa(lp29
F331.63426852226257
aI0
aa(lp30
F346.64948749542236
aI0
aa(lp31
F370.79058742523193
aI0
aa(lp32
F381.08182740211487
aI0
aa(lp33
F405.79648852348328
aI0
aa(lp34
F428.99685645103455
aI0
aa(lp35
F438.69858050346375
aI0
aa(lp36
F459.54015851020813
aI0
aa(lp37
F485.66252040863037
aI0
aa(lp38
F511.62989544868469
aI0
aa(lp39
F525.61665439605713
aI0
aa(lp40
F550.83603835105896
aI0
aa(lp41
F574.95007038116455
aI0
aa(lp42
F600.59356641769409
aI0
aa(lp43
F615.42147064208984
aI0
aa(lp44
F624.79712557792664
aI0
aa(lp45
F641.63524556159973
aI0
aa(lp46
F665.86312747001648
aI0
aa(lp47
F675.76623725891113
aI0
aa(lp48
F699.68561816215515
aI0
aa(lp49
F706.47160029411316
aI0
aa(lp50
F713.45402145385742
aI0
aa(lp51
F737.53334259986877
aI0
aa(lp52
F749.67527866363525
aI0
aa(lp53
F767.46163773536682
aI0
aa(lp54
F788.84594774246216
aI0
aa(lp55
F814.14450073242188
aI0
aa(lp56
F837.68342065811157
aI0
aa(lp57
F862.92402148246765
aI0
aa(lp58
F874.48566651344299
aI0
aa(lp59
F900.0974133014679
aI0
aa(lp60
F916.70331335067749
aI0
aa(lp61
F943.53496241569519
aI0
aa(lp62
F956.62128448486328
aI0
aa(lp63
F968.49694752693176
aI0
aa(lp64
F977.09795570373535
aI0
aa(lp65
F985.83309769630432
aI0
aa(lp66
F1008.3690247535706
aI0
aa(lp67
F1018.887327671051
aI0
aa(lp68
F1028.3317196369171
aI0
aa(lp69
F1034.3550426959991
aI0
aa(lp70
F1043.2094938755035
aI0
aa(lp71
F1050.6368577480316
aI0
aa(lp72
F1058.4865868091583
aI0
aa(lp73
F1065.8203628063202
aI0
aa(lp74
F1076.4251825809479
aI0
aa(lp75
F1084.0429794788361
aI0
aa(lp76
F1092.1211905479431
aI0
aa(lp77
F1098.0086374282837
aI0
aa(lp78
F1105.57435131073
aI0
aa(lp79
F1113.282897233963
aI0
aa(lp80
F1121.2007591724396
aI0
aa(lp81
F1136.0951590538025
aI0
aa(lp82
F1145.3837220668793
aI0
aa(lp83
F1152.924455165863
aI0
aa(lp84
F1160.101624250412
aI0
aa(lp85
F1171.1371722221375
aI0
aa(lp86
F1178.498702287674
aI0
aa(lp87
F1194.4155523777008
aI0
aa(lp88
F1206.7900364398956
aI0
aa(lp89
F1222.0674505233765
aI0
aa(lp90
F1239.6208004951477
aI0
aa(lp91
F1255.9661376476288
aI0
aa(lp92
F1268.8697347640991
aI0
aa(lp93
F1279.2219748497009
aI0
aa(lp94
F1286.6286480426788
aI0
aa(lp95
F1300.8568148612976
aI0
aa(lp96
F1315.5107929706573
aI0
aa(lp97
F1332.01606798172
aI0
aa(lp98
F1343.1141850948334
aI0
aa(lp99
F1359.157505273819
aI0
aa(lp100
F1374.132440328598
aI0
aa(lp101
F1383.8061034679413
aI0
aa(lp102
F1397.3002374172211
aI0
aa(lp103
F1407.8453574180603
aI0
aasS'plan'
p104
Ns.