(dp1
S'search_time'
p2
(lp3
(lp4
F8.5167560577392578
aI1
aa(lp5
F15.304514169692993
aI1
aa(lp6
F21.734091997146606
aI1
aa(lp7
F27.534878969192505
aI1
aa(lp8
F34.743489980697632
aI1
aa(lp9
F42.950249910354614
aI1
aa(lp10
F55.897430896759033
aI1
aa(lp11
F62.07304573059082
aI1
aa(lp12
F74.01609468460083
aI1
aa(lp13
F80.172649621963501
aI1
aa(lp14
F90.851398468017578
aI1
aa(lp15
F99.980145454406738
aI1
aa(lp16
F118.52433228492737
aI1
aa(lp17
F140.57371640205383
aI1
aa(lp18
F170.43786120414734
aI1
aa(lp19
F189.67671227455139
aI1
aa(lp20
F223.6792323589325
aI1
aa(lp21
F230.67723321914673
aI1
aa(lp22
F256.21849608421326
aI1
aa(lp23
F286.50333404541016
aI1
aa(lp24
F293.52826023101807
aI1
aa(lp25
F303.90112209320068
aI1
aa(lp26
F309.41986012458801
aI1
aa(lp27
F330.94840621948242
aI1
aa(lp28
F360.18846702575684
aI1
aa(lp29
F367.76171898841858
aI1
aa(lp30
F396.74918985366821
aI1
aa(lp31
F433.09596991539001
aI1
aa(lp32
F439.83311581611633
aI1
aa(lp33
F453.12841296195984
aI1
aa(lp34
F471.0304708480835
aI1
aa(lp35
F476.36441993713379
aI1
aa(lp36
F493.92154502868652
aI1
aa(lp37
F502.67457509040833
aI1
aa(lp38
F512.31456589698792
aI1
aa(lp39
F525.81636905670166
aI1
aa(lp40
F552.97632694244385
aI1
aa(lp41
F585.57252907752991
aI1
aa(lp42
F614.95505690574646
aI1
aa(lp43
F643.05991578102112
aI1
aa(lp44
F673.41857171058655
aI1
aa(lp45
F680.20782065391541
aI1
aa(lp46
F686.47084355354309
aI1
aa(lp47
F713.89987254142761
aI1
aa(lp48
F739.230881690979
aI1
aa(lp49
F747.07407569885254
aI1
aa(lp50
F775.27898263931274
aI1
aa(lp51
F780.8834536075592
aI1
aa(lp52
F788.19896173477173
aI1
aa(lp53
F796.09087681770325
aI1
aa(lp54
F809.70491480827332
aI1
aa(lp55
F815.82925271987915
aI1
aa(lp56
F823.87343668937683
aI1
aa(lp57
F849.32618856430054
aI1
aa(lp58
F858.92269945144653
aI1
aa(lp59
F883.64687156677246
aI1
aa(lp60
F909.34812259674072
aI1
aa(lp61
F935.59306764602661
aI1
aa(lp62
F956.20051264762878
aI1
aa(lp63
F985.19220066070557
aI1
aa(lp64
F1017.2320115566254
aI1
aa(lp65
F1046.7666954994202
aI1
aa(lp66
F1053.1835074424744
aI1
aa(lp67
F1080.397426366806
aI1
aa(lp68
F1085.7164075374603
aI1
aa(lp69
F1091.4404644966125
aI1
aa(lp70
F1096.8981964588165
aI1
aa(lp71
F1102.2569773197174
aI1
aa(lp72
F1116.6211762428284
aI1
aa(lp73
F1123.5259852409363
aI1
aa(lp74
F1128.3191993236542
aI1
aa(lp75
F1137.4831023216248
aI1
aa(lp76
F1148.5869753360748
aI1
aa(lp77
F1159.7842383384705
aI1
aa(lp78
F1169.4232413768768
aI1
aa(lp79
F1181.9297323226929
aI1
aa(lp80
F1193.2660973072052
aI1
aa(lp81
F1205.9567832946777
aI1
aa(lp82
F1222.8651082515717
aI1
aa(lp83
F1228.8922312259674
aI1
aa(lp84
F1237.9004831314087
aI1
aa(lp85
F1244.8448452949524
aI1
aa(lp86
F1258.4921653270721
aI1
aa(lp87
F1268.2791292667389
aI1
aa(lp88
F1273.5840442180634
aI1
aa(lp89
F1280.3223130702972
aI1
aa(lp90
F1290.4939551353455
aI1
aa(lp91
F1298.0441381931305
aI1
aa(lp92
F1304.2048552036285
aI1
aa(lp93
F1317.1761112213135
aI1
aa(lp94
F1333.6457180976868
aI1
aa(lp95
F1348.1174981594086
aI1
aa(lp96
F1358.3210351467133
aI1
aa(lp97
F1364.8881740570068
aI1
aa(lp98
F1375.6523520946503
aI1
aa(lp99
F1380.5368711948395
aI1
aa(lp100
F1386.4783942699432
aI1
aa(lp101
F1394.5141761302948
aI1
aa(lp102
F1412.8463461399078
aI1
aa(lp103
F1429.000262260437
aI1
aasS'plan'
p104
Ns.