(dp1
S'search_time'
p2
(lp3
(lp4
F5.8435399532318115
aI-1
aa(lp5
F11.339780807495117
aI-1
aa(lp6
F17.517432689666748
aI-1
aa(lp7
F23.649442672729492
aI-1
aa(lp8
F30.633412599563599
aI-1
aa(lp9
F36.7301926612854
aI0
aa(lp10
F44.702749729156494
aI0
aa(lp11
F63.901423692703247
aI0
aa(lp12
F75.840315818786621
aI0
aa(lp13
F83.128791809082031
aI0
aa(lp14
F87.905051708221436
aI0
aa(lp15
F92.593834638595581
aI0
aa(lp16
F102.36582684516907
aI0
aa(lp17
F113.91296076774597
aI0
aa(lp18
F119.88317894935608
aI0
aa(lp19
F124.60102796554565
aI0
aa(lp20
F133.41289210319519
aI0
aa(lp21
F142.69907116889954
aI1
aa(lp22
F150.17324423789978
aI1
aa(lp23
F154.56683301925659
aI1
aa(lp24
F161.85221982002258
aI1
aa(lp25
F167.83961462974548
aI1
aa(lp26
F173.20706844329834
aI1
aa(lp27
F188.25434851646423
aI1
aa(lp28
F200.82025361061096
aI1
aa(lp29
F206.7085645198822
aI1
aa(lp30
F213.97850060462952
aI1
aa(lp31
F222.30981159210205
aI1
aa(lp32
F245.0114107131958
aI1
aa(lp33
F264.88732481002808
aI1
aa(lp34
F290.88226985931396
aI1
aa(lp35
F299.33215379714966
aI1
aa(lp36
F307.89212894439697
aI1
aa(lp37
F316.05721998214722
aI1
aa(lp38
F340.17350506782532
aI1
aa(lp39
F349.04445099830627
aI1
aa(lp40
F374.02732491493225
aI1
aa(lp41
F385.63319206237793
aI1
aa(lp42
F403.40695190429688
aI1
aa(lp43
F420.80669188499451
aI1
aa(lp44
F432.94581699371338
aI1
aa(lp45
F446.00013709068298
aI1
aa(lp46
F465.66775298118591
aI1
aa(lp47
F493.98689603805542
aI1
aa(lp48
F500.52149105072021
aI1
aa(lp49
F506.57622218132019
aI1
aa(lp50
F514.81793332099915
aI1
aa(lp51
F538.85479116439819
aI1
aa(lp52
F564.02609729766846
aI1
aa(lp53
F592.98475408554077
aI1
aa(lp54
F615.37254524230957
aI1
aa(lp55
F633.05075907707214
aI1
aa(lp56
F656.11781024932861
aI1
aa(lp57
F662.17411422729492
aI1
aa(lp58
F667.88595914840698
aI1
aa(lp59
F692.78729104995728
aI1
aa(lp60
F715.53038215637207
aI1
aa(lp61
F744.73626327514648
aI1
aa(lp62
F770.25454115867615
aI1
aa(lp63
F795.66419911384583
aI1
aa(lp64
F805.48690700531006
aI1
aa(lp65
F831.12114810943604
aI1
aa(lp66
F838.53780317306519
aI1
aa(lp67
F857.70423197746277
aI1
aa(lp68
F864.85493993759155
aI1
aa(lp69
F873.67978096008301
aI1
aa(lp70
F881.69465208053589
aI1
aa(lp71
F887.46701693534851
aI1
aa(lp72
F892.93743205070496
aI1
aa(lp73
F921.62251901626587
aI1
aa(lp74
F932.75279402732849
aI1
aa(lp75
F941.45573782920837
aI1
aa(lp76
F969.98799872398376
aI1
aa(lp77
F987.13862991333008
aI1
aa(lp78
F1011.960718870163
aI1
aa(lp79
F1029.9555070400238
aI1
aa(lp80
F1039.1693069934845
aI1
aa(lp81
F1056.7035441398621
aI1
aa(lp82
F1063.6074080467224
aI1
aa(lp83
F1068.2580690383911
aI1
aa(lp84
F1097.3420400619507
aI1
aa(lp85
F1104.5339910984039
aI1
aa(lp86
F1121.2745249271393
aI1
aa(lp87
F1128.6526770591736
aI1
aa(lp88
F1135.1922380924225
aI1
aa(lp89
F1143.5150892734528
aI1
aa(lp90
F1185.2019503116608
aI1
aa(lp91
F1199.8983402252197
aI1
aa(lp92
F1207.4401834011078
aI1
aa(lp93
F1214.6586475372314
aI1
aa(lp94
F1257.9932103157043
aI1
aa(lp95
F1267.3562612533569
aI1
aa(lp96
F1274.9863390922546
aI1
aa(lp97
F1311.9877429008484
aI1
aa(lp98
F1334.999764919281
aI1
aa(lp99
F1354.8117408752441
aI1
aa(lp100
F1381.3974499702454
aI1
aa(lp101
F1417.2169001102448
aI1
aa(lp102
F1449.9348649978638
aI1
aa(lp103
F1464.5646939277649
aI1
aasS'plan'
p104
Ns.