(dp1
S'search_time'
p2
(lp3
(lp4
F10.911530017852783
aI0
aa(lp5
F17.891511917114258
aI0
aa(lp6
F23.548202037811279
aI0
aa(lp7
F53.588145017623901
aI0
aa(lp8
F81.589985132217407
aI0
aa(lp9
F88.737877130508423
aI0
aa(lp10
F105.73750901222229
aI1
aa(lp11
F115.0389940738678
aI1
aa(lp12
F128.89674997329712
aI1
aa(lp13
F137.47081780433655
aI1
aa(lp14
F151.92315292358398
aI1
aa(lp15
F160.62640905380249
aI1
aa(lp16
F172.9513840675354
aI1
aa(lp17
F181.40627312660217
aI1
aa(lp18
F194.62828612327576
aI1
aa(lp19
F207.12030410766602
aI1
aa(lp20
F232.88980531692505
aI1
aa(lp21
F260.68936347961426
aI1
aa(lp22
F269.18148732185364
aI1
aa(lp23
F296.33497738838196
aI1
aa(lp24
F305.48878836631775
aI1
aa(lp25
F312.53042936325073
aI1
aa(lp26
F336.35375833511353
aI1
aa(lp27
F350.47490239143372
aI1
aa(lp28
F377.92661929130554
aI1
aa(lp29
F409.08381938934326
aI1
aa(lp30
F416.24700021743774
aI1
aa(lp31
F422.79849410057068
aI1
aa(lp32
F451.43749618530273
aI1
aa(lp33
F458.40037298202515
aI1
aa(lp34
F483.77275991439819
aI1
aa(lp35
F495.45144605636597
aI1
aa(lp36
F505.73076915740967
aI1
aa(lp37
F515.53228116035461
aI1
aa(lp38
F549.77339911460876
aI1
aa(lp39
F558.81008219718933
aI1
aa(lp40
F566.74185824394226
aI1
aa(lp41
F583.87698030471802
aI1
aa(lp42
F608.20409822463989
aI1
aa(lp43
F638.28924918174744
aI1
aa(lp44
F650.7917811870575
aI1
aa(lp45
F679.23701310157776
aI1
aa(lp46
F686.95396614074707
aI1
aa(lp47
F691.87356925010681
aI1
aa(lp48
F708.24372529983521
aI1
aa(lp49
F716.16832232475281
aI1
aa(lp50
F742.64150047302246
aI1
aa(lp51
F765.52672934532166
aI1
aa(lp52
F787.75623512268066
aI1
aa(lp53
F813.08470010757446
aI1
aa(lp54
F838.91961908340454
aI1
aa(lp55
F864.87316608428955
aI1
aa(lp56
F872.54850602149963
aI1
aa(lp57
F889.86891984939575
aI1
aa(lp58
F898.19362783432007
aI1
aa(lp59
F909.13735580444336
aI1
aa(lp60
F917.45474481582642
aI1
aa(lp61
F940.28504490852356
aI1
aa(lp62
F966.27039194107056
aI1
aa(lp63
F998.44918990135193
aI1
aa(lp64
F1025.771803855896
aI1
aa(lp65
F1031.3764770030975
aI1
aa(lp66
F1057.3907029628754
aI1
aa(lp67
F1069.6470577716827
aI1
aa(lp68
F1076.4872486591339
aI1
aa(lp69
F1083.3861746788025
aI1
aa(lp70
F1091.0044136047363
aI1
aa(lp71
F1099.6071135997772
aI1
aa(lp72
F1107.2871506214142
aI1
aa(lp73
F1115.6670815944672
aI1
aa(lp74
F1122.252801656723
aI1
aa(lp75
F1130.0133366584778
aI1
aa(lp76
F1144.9880867004395
aI1
aa(lp77
F1151.1231796741486
aI1
aa(lp78
F1159.4019627571106
aI1
aa(lp79
F1166.4907228946686
aI1
aa(lp80
F1173.2084000110626
aI1
aa(lp81
F1185.7710390090942
aI1
aa(lp82
F1192.4690930843353
aI1
aa(lp83
F1200.7503411769867
aI1
aa(lp84
F1206.9874963760376
aI1
aa(lp85
F1221.6383163928986
aI1
aa(lp86
F1228.269519329071
aI1
aa(lp87
F1243.4410402774811
aI1
aa(lp88
F1250.7620882987976
aI1
aa(lp89
F1256.8759832382202
aI1
aa(lp90
F1264.9069912433624
aI1
aa(lp91
F1271.7306370735168
aI1
aa(lp92
F1278.2478981018066
aI1
aa(lp93
F1290.0080871582031
aI1
aa(lp94
F1301.6621561050415
aI1
aa(lp95
F1314.7322561740875
aI1
aa(lp96
F1323.804190158844
aI1
aa(lp97
F1330.4312851428986
aI1
aa(lp98
F1346.7018630504608
aI1
aa(lp99
F1354.4915411472321
aI1
aa(lp100
F1368.7467391490936
aI1
aa(lp101
F1385.7863581180573
aI1
aa(lp102
F1401.1704421043396
aI1
aa(lp103
F1411.2116470336914
aI1
aasS'plan'
p104
Ns.