(dp1
S'search_time'
p2
(lp3
(lp4
F9.9243159294128418
aI-1
aa(lp5
F17.372350931167603
aI-1
aa(lp6
F26.332000970840454
aI-1
aa(lp7
F35.623591899871826
aI-1
aa(lp8
F44.536840915679932
aI-1
aa(lp9
F55.293390989303589
aI-1
aa(lp10
F64.6473069190979
aI-1
aa(lp11
F88.145773887634277
aI-1
aa(lp12
F113.33118891716003
aI-1
aa(lp13
F130.83121585845947
aI-1
aa(lp14
F142.37525582313538
aI-1
aa(lp15
F152.14337372779846
aI-1
aa(lp16
F159.42918181419373
aI-1
aa(lp17
F168.60312581062317
aI-1
aa(lp18
F191.88539385795593
aI-1
aa(lp19
F201.3289270401001
aI-1
aa(lp20
F216.55258512496948
aI-1
aa(lp21
F225.67445921897888
aI-1
aa(lp22
F236.43912720680237
aI-1
aa(lp23
F259.24769926071167
aI-1
aa(lp24
F280.36163926124573
aI-1
aa(lp25
F296.87097215652466
aI-1
aa(lp26
F314.34159922599792
aI-1
aa(lp27
F339.93654918670654
aI-1
aa(lp28
F347.88850426673889
aI-1
aa(lp29
F374.37977313995361
aI-1
aa(lp30
F401.38280630111694
aI-1
aa(lp31
F411.58659148216248
aI-1
aa(lp32
F421.98612642288208
aI-1
aa(lp33
F431.33080458641052
aI-1
aa(lp34
F456.03379559516907
aI-1
aa(lp35
F464.88164758682251
aI-1
aa(lp36
F486.54176259040833
aI-1
aa(lp37
F497.50366473197937
aI-1
aa(lp38
F519.87881278991699
aI-1
aa(lp39
F543.87084174156189
aI-1
aa(lp40
F558.31976556777954
aI-1
aa(lp41
F565.25416851043701
aI-1
aa(lp42
F589.35791349411011
aI-1
aa(lp43
F598.1478705406189
aI-1
aa(lp44
F609.33125448226929
aI-1
aa(lp45
F617.14573860168457
aI-1
aa(lp46
F641.40635061264038
aI-1
aa(lp47
F665.40994143486023
aI-1
aa(lp48
F682.40823531150818
aI-1
aa(lp49
F695.00507616996765
aI-1
aa(lp50
F718.17299318313599
aI-1
aa(lp51
F742.98327231407166
aI-1
aa(lp52
F769.78185820579529
aI-1
aa(lp53
F779.78318905830383
aI-1
aa(lp54
F787.68996715545654
aI-1
aa(lp55
F802.37863826751709
aI-1
aa(lp56
F821.21479630470276
aI-1
aa(lp57
F844.06986927986145
aI-1
aa(lp58
F855.19312620162964
aI0
aa(lp59
F880.67831420898438
aI0
aa(lp60
F906.5809862613678
aI0
aa(lp61
F918.55467629432678
aI0
aa(lp62
F945.9351601600647
aI0
aa(lp63
F970.61962509155273
aI0
aa(lp64
F994.94545817375183
aI0
aa(lp65
F1016.9981791973114
aI0
aa(lp66
F1025.5043902397156
aI0
aa(lp67
F1036.3600051403046
aI0
aa(lp68
F1043.4124610424042
aI0
aa(lp69
F1051.6038122177124
aI0
aa(lp70
F1059.3485012054443
aI0
aa(lp71
F1066.8933362960815
aI0
aa(lp72
F1075.6004304885864
aI0
aa(lp73
F1082.6489403247833
aI0
aa(lp74
F1091.2780122756958
aI0
aa(lp75
F1099.3502063751221
aI0
aa(lp76
F1114.6987812519073
aI0
aa(lp77
F1126.7756941318512
aI0
aa(lp78
F1140.1757822036743
aI0
aa(lp79
F1147.3531763553619
aI0
aa(lp80
F1153.4661724567413
aI0
aa(lp81
F1169.8900516033173
aI0
aa(lp82
F1186.0741875171661
aI0
aa(lp83
F1201.9989295005798
aI0
aa(lp84
F1209.7173984050751
aI0
aa(lp85
F1217.1519513130188
aI0
aa(lp86
F1225.8080551624298
aI0
aa(lp87
F1234.1953611373901
aI0
aa(lp88
F1241.6898531913757
aI0
aa(lp89
F1250.1612951755524
aI0
aa(lp90
F1264.8191590309143
aI0
aa(lp91
F1276.9174289703369
aI0
aa(lp92
F1284.0325319766998
aI0
aa(lp93
F1295.9504640102386
aI0
aa(lp94
F1302.6142179965973
aI0
aa(lp95
F1309.8321859836578
aI0
aa(lp96
F1320.940582036972
aI0
aa(lp97
F1337.0184540748596
aI0
aa(lp98
F1352.0896399021149
aI0
aa(lp99
F1363.4360289573669
aI0
aa(lp100
F1372.5791330337524
aI0
aa(lp101
F1385.8453860282898
aI0
aa(lp102
F1397.1110401153564
aI0
aa(lp103
F1410.6880571842194
aI0
aasS'plan'
p104
Ns.