(dp1
S'search_time'
p2
(lp3
(lp4
F8.8406250476837158
aI-2
aa(lp5
F17.311077117919922
aI0
aa(lp6
F25.173447132110596
aI0
aa(lp7
F37.53409218788147
aI0
aa(lp8
F44.310364246368408
aI0
aa(lp9
F60.849953413009644
aI0
aa(lp10
F82.818384408950806
aI0
aa(lp11
F106.05937242507935
aI1
aa(lp12
F116.2145402431488
aI1
aa(lp13
F128.41077828407288
aI1
aa(lp14
F136.14253616333008
aI1
aa(lp15
F142.95493817329407
aI1
aa(lp16
F156.08334517478943
aI1
aa(lp17
F164.89721918106079
aI1
aa(lp18
F177.38975811004639
aI1
aa(lp19
F185.12343215942383
aI1
aa(lp20
F193.27954721450806
aI1
aa(lp21
F203.50026440620422
aI1
aa(lp22
F210.40241646766663
aI1
aa(lp23
F220.47455763816833
aI1
aa(lp24
F227.44504451751709
aI1
aa(lp25
F251.48828554153442
aI1
aa(lp26
F274.07088446617126
aI1
aa(lp27
F284.78444766998291
aI1
aa(lp28
F291.86981248855591
aI1
aa(lp29
F302.06353759765625
aI1
aa(lp30
F328.08174967765808
aI1
aa(lp31
F349.82917380332947
aI1
aa(lp32
F360.85942077636719
aI1
aa(lp33
F369.45720386505127
aI1
aa(lp34
F390.84235692024231
aI1
aa(lp35
F416.92978000640869
aI1
aa(lp36
F427.10728406906128
aI1
aa(lp37
F436.05811190605164
aI1
aa(lp38
F451.94517993927002
aI1
aa(lp39
F463.01350092887878
aI1
aa(lp40
F473.71902275085449
aI1
aa(lp41
F492.54930686950684
aI1
aa(lp42
F500.32228088378906
aI1
aa(lp43
F525.94767093658447
aI1
aa(lp44
F534.23322510719299
aI1
aa(lp45
F543.48127198219299
aI1
aa(lp46
F552.81790995597839
aI1
aa(lp47
F570.52234196662903
aI1
aa(lp48
F579.95898795127869
aI1
aa(lp49
F594.13841891288757
aI1
aa(lp50
F602.02632308006287
aI1
aa(lp51
F628.14485812187195
aI1
aa(lp52
F649.72846627235413
aI1
aa(lp53
F658.04642820358276
aI1
aa(lp54
F679.37529921531677
aI1
aa(lp55
F687.29111528396606
aI1
aa(lp56
F709.78571820259094
aI1
aa(lp57
F721.00460910797119
aI1
aa(lp58
F739.43881320953369
aI1
aa(lp59
F757.19878029823303
aI1
aa(lp60
F768.47839522361755
aI1
aa(lp61
F789.67860436439514
aI1
aa(lp62
F811.90987324714661
aI1
aa(lp63
F822.60366535186768
aI1
aa(lp64
F832.35478043556213
aI1
aa(lp65
F856.22287344932556
aI1
aa(lp66
F867.76533365249634
aI1
aa(lp67
F892.25098562240601
aI1
aa(lp68
F903.08354163169861
aI1
aa(lp69
F913.58266854286194
aI1
aa(lp70
F923.24722170829773
aI1
aa(lp71
F933.64425373077393
aI1
aa(lp72
F945.24033665657043
aI1
aa(lp73
F955.24222850799561
aI1
aa(lp74
F966.06178545951843
aI1
aa(lp75
F973.63170552253723
aI1
aa(lp76
F991.0254955291748
aI1
aa(lp77
F1000.7689225673676
aI1
aa(lp78
F1009.4256746768951
aI1
aa(lp79
F1022.0020887851715
aI1
aa(lp80
F1035.3002419471741
aI1
aa(lp81
F1047.0613160133362
aI1
aa(lp82
F1057.7744901180267
aI1
aa(lp83
F1069.320454120636
aI1
aa(lp84
F1083.0963361263275
aI1
aa(lp85
F1091.0537400245667
aI1
aa(lp86
F1102.29438996315
aI1
aa(lp87
F1112.7617838382721
aI1
aa(lp88
F1131.3824989795685
aI1
aa(lp89
F1139.3535017967224
aI1
aa(lp90
F1155.9478969573975
aI1
aa(lp91
F1162.4281449317932
aI1
aa(lp92
F1175.5158679485321
aI1
aa(lp93
F1189.3693749904633
aI1
aa(lp94
F1198.1075809001923
aI1
aa(lp95
F1206.2874598503113
aI1
aa(lp96
F1220.9672207832336
aI1
aa(lp97
F1236.8229999542236
aI1
aa(lp98
F1253.6574440002441
aI1
aa(lp99
F1261.946170091629
aI1
aa(lp100
F1275.9701261520386
aI1
aa(lp101
F1288.994204044342
aI1
aa(lp102
F1300.4847061634064
aI1
aa(lp103
F1308.1547031402588
aI1
aasS'plan'
p104
Ns.