(dp1
S'search_time'
p2
(lp3
(lp4
F7.0785360336303711
aI-2
aa(lp5
F14.975773096084595
aI-1
aa(lp6
F23.113456010818481
aI-1
aa(lp7
F30.592765092849731
aI-1
aa(lp8
F53.294690132141113
aI-1
aa(lp9
F60.362879037857056
aI-1
aa(lp10
F80.5711350440979
aI-1
aa(lp11
F90.389450073242188
aI-1
aa(lp12
F96.718970060348511
aI-1
aa(lp13
F103.08552503585815
aI-1
aa(lp14
F112.32868194580078
aI-1
aa(lp15
F119.38369202613831
aI-1
aa(lp16
F129.28752684593201
aI-1
aa(lp17
F134.66391563415527
aI-1
aa(lp18
F163.52004170417786
aI-1
aa(lp19
F193.92235660552979
aI-1
aa(lp20
F201.43829154968262
aI-1
aa(lp21
F230.13871765136719
aI-1
aa(lp22
F240.46606254577637
aI0
aa(lp23
F274.46201658248901
aI0
aa(lp24
F300.59846949577332
aI0
aa(lp25
F329.42404246330261
aI0
aa(lp26
F344.17998337745667
aI0
aa(lp27
F352.86435127258301
aI0
aa(lp28
F379.20095229148865
aI0
aa(lp29
F405.46071219444275
aI0
aa(lp30
F423.1368043422699
aI0
aa(lp31
F437.59087538719177
aI0
aa(lp32
F444.28468346595764
aI0
aa(lp33
F454.46629452705383
aI0
aa(lp34
F461.67994260787964
aI0
aa(lp35
F469.25544166564941
aI0
aa(lp36
F480.8317985534668
aI0
aa(lp37
F489.7974636554718
aI0
aa(lp38
F499.62653756141663
aI0
aa(lp39
F510.26324152946472
aI0
aa(lp40
F517.58424758911133
aI0
aa(lp41
F531.73161864280701
aI0
aa(lp42
F539.48439359664917
aI0
aa(lp43
F545.28811264038086
aI0
aa(lp44
F574.50707578659058
aI0
aa(lp45
F599.79699063301086
aI0
aa(lp46
F626.56026148796082
aI0
aa(lp47
F634.26513051986694
aI0
aa(lp48
F640.11057353019714
aI0
aa(lp49
F664.307297706604
aI0
aa(lp50
F691.10429072380066
aI0
aa(lp51
F718.44374680519104
aI0
aa(lp52
F746.98330187797546
aI0
aa(lp53
F774.21899199485779
aI0
aa(lp54
F780.76697111129761
aI0
aa(lp55
F788.0488612651825
aI0
aa(lp56
F798.30596518516541
aI0
aa(lp57
F805.68418121337891
aI0
aa(lp58
F818.68214511871338
aI0
aa(lp59
F825.46099996566772
aI0
aa(lp60
F859.33823299407959
aI0
aa(lp61
F886.65010714530945
aI0
aa(lp62
F895.52341914176941
aI0
aa(lp63
F903.05258226394653
aI0
aa(lp64
F930.89073419570923
aI0
aa(lp65
F944.40204215049744
aI0
aa(lp66
F969.53372716903687
aI0
aa(lp67
F977.96522808074951
aI0
aa(lp68
F985.03791618347168
aI0
aa(lp69
F991.69462323188782
aI0
aa(lp70
F997.71998429298401
aI0
aa(lp71
F1007.0894341468811
aI0
aa(lp72
F1015.3532400131226
aI0
aa(lp73
F1022.7928011417389
aI0
aa(lp74
F1029.1809611320496
aI0
aa(lp75
F1036.945436000824
aI0
aa(lp76
F1045.5847821235657
aI0
aa(lp77
F1052.839280128479
aI0
aa(lp78
F1058.3307650089264
aI0
aa(lp79
F1068.0672569274902
aI0
aa(lp80
F1075.3650720119476
aI0
aa(lp81
F1081.8052678108215
aI0
aa(lp82
F1088.1585488319397
aI0
aa(lp83
F1096.1350259780884
aI0
aa(lp84
F1103.2244839668274
aI0
aa(lp85
F1116.1927769184113
aI0
aa(lp86
F1126.7214448451996
aI0
aa(lp87
F1142.2267208099365
aI0
aa(lp88
F1148.7016808986664
aI0
aa(lp89
F1162.357177734375
aI0
aa(lp90
F1169.950692653656
aI0
aa(lp91
F1175.9595656394958
aI0
aa(lp92
F1189.0740556716919
aI0
aa(lp93
F1196.3128626346588
aI0
aa(lp94
F1201.3783538341522
aI0
aa(lp95
F1209.2368450164795
aI0
aa(lp96
F1223.6453981399536
aI0
aa(lp97
F1230.661838054657
aI0
aa(lp98
F1243.8210799694061
aI0
aa(lp99
F1261.4897618293762
aI0
aa(lp100
F1266.685008764267
aI0
aa(lp101
F1270.7224678993225
aI0
aa(lp102
F1283.8485178947449
aI0
aa(lp103
F1295.7790908813477
aI0
aasS'plan'
p104
Ns.