(dp1
S'search_time'
p2
(lp3
(lp4
F8.4130430221557617
aI-2
aa(lp5
F17.513188123703003
aI-2
aa(lp6
F25.880425930023193
aI-1
aa(lp7
F43.793045043945312
aI-1
aa(lp8
F81.222127199172974
aI-1
aa(lp9
F88.905656099319458
aI-1
aa(lp10
F100.79702806472778
aI-1
aa(lp11
F109.31379508972168
aI-1
aa(lp12
F150.74912214279175
aI-1
aa(lp13
F196.69817614555359
aI-1
aa(lp14
F240.60277032852173
aI-1
aa(lp15
F250.57722234725952
aI-1
aa(lp16
F259.73931121826172
aI-1
aa(lp17
F267.93381428718567
aI-1
aa(lp18
F277.09437942504883
aI-1
aa(lp19
F284.56802034378052
aI-1
aa(lp20
F299.61182737350464
aI-1
aa(lp21
F347.95785331726074
aI-1
aa(lp22
F358.57196140289307
aI-1
aa(lp23
F371.23993825912476
aI-1
aa(lp24
F416.48832726478577
aI-1
aa(lp25
F435.1477222442627
aI-1
aa(lp26
F463.04778122901917
aI-1
aa(lp27
F471.74355816841125
aI-1
aa(lp28
F515.46733808517456
aI-1
aa(lp29
F556.36172318458557
aI-1
aa(lp30
F590.55361819267273
aI-1
aa(lp31
F602.76535320281982
aI0
aa(lp32
F610.3521842956543
aI0
aa(lp33
F630.16668033599854
aI0
aa(lp34
F662.50386643409729
aI0
aa(lp35
F673.25114345550537
aI0
aa(lp36
F709.28866958618164
aI0
aa(lp37
F741.50311756134033
aI0
aa(lp38
F751.58919668197632
aI0
aa(lp39
F761.91331648826599
aI0
aa(lp40
F786.086350440979
aI0
aa(lp41
F791.29073858261108
aI0
aa(lp42
F829.15842652320862
aI0
aa(lp43
F836.18156147003174
aI0
aa(lp44
F855.71464252471924
aI0
aa(lp45
F880.61266756057739
aI0
aa(lp46
F893.15109038352966
aI0
aa(lp47
F899.69531631469727
aI0
aa(lp48
F946.94836235046387
aI0
aa(lp49
F955.29204821586609
aI0
aa(lp50
F997.43837523460388
aI0
aa(lp51
F1023.525190114975
aI0
aa(lp52
F1074.7277581691742
aI0
aa(lp53
F1082.0361232757568
aI0
aa(lp54
F1126.8192534446716
aI0
aa(lp55
F1138.0001444816589
aI0
aa(lp56
F1186.5109395980835
aI0
aa(lp57
F1207.1211504936218
aI0
aa(lp58
F1217.0742285251617
aI0
aa(lp59
F1225.4034035205841
aI0
aa(lp60
F1266.1594274044037
aI0
aa(lp61
F1297.0924084186554
aI0
aa(lp62
F1306.0041553974152
aI0
aa(lp63
F1344.6926553249359
aI0
aa(lp64
F1388.2925624847412
aI0
aa(lp65
F1423.7056312561035
aI0
aa(lp66
F1440.9427483081818
aI0
aa(lp67
F1479.1289534568787
aI0
aa(lp68
F1488.8032214641571
aI0
aa(lp69
F1495.458598613739
aI0
aa(lp70
F1505.8529977798462
aI0
aa(lp71
F1515.0810575485229
aI0
aa(lp72
F1522.563494682312
aI0
aa(lp73
F1531.1470355987549
aI0
aa(lp74
F1544.400741815567
aI0
aa(lp75
F1551.5459318161011
aI0
aa(lp76
F1560.8987309932709
aI0
aa(lp77
F1577.6234200000763
aI0
aa(lp78
F1590.1190650463104
aI0
aa(lp79
F1600.9698801040649
aI0
aa(lp80
F1613.7283210754395
aI0
aa(lp81
F1622.2418811321259
aI0
aa(lp82
F1633.298210144043
aI0
aa(lp83
F1646.3086421489716
aI0
aa(lp84
F1652.8997330665588
aI0
aa(lp85
F1670.3134438991547
aI0
aa(lp86
F1679.3735847473145
aI0
aa(lp87
F1685.202704668045
aI0
aa(lp88
F1700.2427005767822
aI0
aa(lp89
F1709.8670926094055
aI0
aa(lp90
F1721.3244526386261
aI0
aa(lp91
F1735.820300579071
aI0
aa(lp92
F1742.7275986671448
aI0
aa(lp93
F1753.7360217571259
aI0
aa(lp94
F1769.1643917560577
aI0
aa(lp95
F1779.4432988166809
aI0
aa(lp96
F1792.5279097557068
aI0
aa(lp97
F1807.1281688213348
aI0
aa(lp98
F1820.4233849048615
aI0
aa(lp99
F1829.4016499519348
aI0
aa(lp100
F1838.0078160762787
aI0
aa(lp101
F1843.3196840286255
aI0
aa(lp102
F1850.6123569011688
aI0
aa(lp103
F1855.586767911911
aI0
aasS'plan'
p104
Ns.