(dp1
S'search_time'
p2
(lp3
(lp4
F7.0068469047546387
aI-2
aa(lp5
F15.522857904434204
aI-1
aa(lp6
F25.034137964248657
aI-1
aa(lp7
F41.291951894760132
aI0
aa(lp8
F54.192383766174316
aI0
aa(lp9
F63.471555709838867
aI0
aa(lp10
F89.182776689529419
aI0
aa(lp11
F97.619609594345093
aI0
aa(lp12
F118.37102460861206
aI0
aa(lp13
F131.08440566062927
aI0
aa(lp14
F145.82051062583923
aI0
aa(lp15
F152.55894660949707
aI0
aa(lp16
F162.30714058876038
aI0
aa(lp17
F169.56221771240234
aI0
aa(lp18
F182.93796157836914
aI0
aa(lp19
F198.66092753410339
aI0
aa(lp20
F208.28213357925415
aI0
aa(lp21
F222.35082960128784
aI0
aa(lp22
F259.03202748298645
aI0
aa(lp23
F293.57492852210999
aI0
aa(lp24
F321.47962141036987
aI0
aa(lp25
F328.14341449737549
aI0
aa(lp26
F342.76614856719971
aI0
aa(lp27
F354.10662150382996
aI0
aa(lp28
F366.55896258354187
aI0
aa(lp29
F372.79454565048218
aI0
aa(lp30
F396.95397448539734
aI0
aa(lp31
F430.24804258346558
aI0
aa(lp32
F438.03353667259216
aI0
aa(lp33
F452.55249452590942
aI0
aa(lp34
F460.33067655563354
aI0
aa(lp35
F493.52727961540222
aI0
aa(lp36
F499.59557056427002
aI0
aa(lp37
F516.48652458190918
aI0
aa(lp38
F547.91896176338196
aI0
aa(lp39
F553.87845873832703
aI0
aa(lp40
F559.88434982299805
aI0
aa(lp41
F596.77162075042725
aI0
aa(lp42
F631.40570473670959
aI0
aa(lp43
F659.76795172691345
aI0
aa(lp44
F668.32168555259705
aI0
aa(lp45
F701.52159738540649
aI0
aa(lp46
F737.14374256134033
aI0
aa(lp47
F775.55147051811218
aI0
aa(lp48
F806.9851245880127
aI0
aa(lp49
F835.57474565505981
aI0
aa(lp50
F854.11219954490662
aI0
aa(lp51
F860.67904949188232
aI0
aa(lp52
F867.85412549972534
aI0
aa(lp53
F902.38294768333435
aI0
aa(lp54
F929.64819955825806
aI0
aa(lp55
F938.72107553482056
aI0
aa(lp56
F945.51184272766113
aI0
aa(lp57
F974.26414775848389
aI0
aa(lp58
F996.428879737854
aI0
aa(lp59
F1019.7392976284027
aI0
aa(lp60
F1024.8366296291351
aI0
aa(lp61
F1038.0617265701294
aI0
aa(lp62
F1049.487699508667
aI0
aa(lp63
F1059.2881305217743
aI1
aa(lp64
F1066.5322105884552
aI1
aa(lp65
F1077.8164627552032
aI1
aa(lp66
F1106.8115088939667
aI1
aa(lp67
F1111.9090828895569
aI1
aa(lp68
F1117.234570980072
aI1
aa(lp69
F1123.5984389781952
aI1
aa(lp70
F1128.4040048122406
aI1
aa(lp71
F1133.7190737724304
aI1
aa(lp72
F1141.9967687129974
aI1
aa(lp73
F1153.0619797706604
aI1
aa(lp74
F1159.0711207389832
aI1
aa(lp75
F1173.8911967277527
aI1
aa(lp76
F1184.161230802536
aI1
aa(lp77
F1190.1959068775177
aI1
aa(lp78
F1193.9187767505646
aI1
aa(lp79
F1209.0829696655273
aI1
aa(lp80
F1220.9240856170654
aI1
aa(lp81
F1226.7538685798645
aI1
aa(lp82
F1232.2543118000031
aI1
aa(lp83
F1238.6443178653717
aI1
aa(lp84
F1249.7453198432922
aI1
aa(lp85
F1257.1468539237976
aI1
aa(lp86
F1264.897449016571
aI1
aa(lp87
F1278.858304977417
aI1
aa(lp88
F1284.4080970287323
aI1
aa(lp89
F1298.7175998687744
aI1
aa(lp90
F1305.2105529308319
aI1
aa(lp91
F1310.9796657562256
aI1
aa(lp92
F1316.256543636322
aI1
aa(lp93
F1323.7569887638092
aI1
aa(lp94
F1330.0846335887909
aI1
aa(lp95
F1346.425532579422
aI1
aa(lp96
F1360.7086396217346
aI1
aa(lp97
F1375.0879046916962
aI1
aa(lp98
F1389.1877837181091
aI1
aa(lp99
F1404.3901517391205
aI1
aa(lp100
F1419.1519157886505
aI1
aa(lp101
F1427.7712807655334
aI1
aa(lp102
F1445.3687996864319
aI1
aa(lp103
F1460.6620087623596
aI1
aasS'plan'
p104
Ns.