(dp1
S'search_time'
p2
(lp3
(lp4
F5.7245028018951416
aI-1
aa(lp5
F9.8985400199890137
aI-1
aa(lp6
F15.466871023178101
aI-1
aa(lp7
F20.203852891921997
aI-1
aa(lp8
F26.181217908859253
aI-1
aa(lp9
F33.826527833938599
aI-1
aa(lp10
F40.136667728424072
aI-1
aa(lp11
F44.854667663574219
aI-1
aa(lp12
F51.032776832580566
aI-1
aa(lp13
F56.546502828598022
aI-1
aa(lp14
F63.26375675201416
aI-1
aa(lp15
F67.774205684661865
aI-1
aa(lp16
F73.705631732940674
aI-1
aa(lp17
F78.986823797225952
aI-1
aa(lp18
F99.751211643218994
aI-1
aa(lp19
F103.60868072509766
aI-1
aa(lp20
F117.27383065223694
aI-1
aa(lp21
F121.56615662574768
aI-1
aa(lp22
F146.90717768669128
aI-1
aa(lp23
F153.57941555976868
aI0
aa(lp24
F217.25346755981445
aI0
aa(lp25
F222.16721653938293
aI0
aa(lp26
F236.22626161575317
aI1
aa(lp27
F242.10412645339966
aI1
aa(lp28
F248.3162534236908
aI1
aa(lp29
F253.05922842025757
aI1
aa(lp30
F269.75732350349426
aI1
aa(lp31
F276.80018544197083
aI1
aa(lp32
F284.8511426448822
aI1
aa(lp33
F290.33036756515503
aI1
aa(lp34
F296.25057077407837
aI1
aa(lp35
F301.30250883102417
aI1
aa(lp36
F312.55965566635132
aI1
aa(lp37
F319.36072969436646
aI1
aa(lp38
F332.16312670707703
aI1
aa(lp39
F338.75729179382324
aI1
aa(lp40
F346.07755589485168
aI1
aa(lp41
F352.53416204452515
aI1
aa(lp42
F374.1126081943512
aI1
aa(lp43
F380.4629271030426
aI1
aa(lp44
F389.98763918876648
aI1
aa(lp45
F396.84604716300964
aI1
aa(lp46
F419.99905133247375
aI1
aa(lp47
F424.77867317199707
aI1
aa(lp48
F433.93457007408142
aI1
aa(lp49
F438.17522025108337
aI1
aa(lp50
F444.78383731842041
aI1
aa(lp51
F450.77226734161377
aI1
aa(lp52
F456.33954930305481
aI1
aa(lp53
F462.63049030303955
aI1
aa(lp54
F471.22761726379395
aI1
aa(lp55
F476.31722927093506
aI1
aa(lp56
F493.19577121734619
aI1
aa(lp57
F497.80455327033997
aI1
aa(lp58
F507.29228329658508
aI1
aa(lp59
F513.30999326705933
aI1
aa(lp60
F585.20463728904724
aI1
aa(lp61
F590.57636117935181
aI1
aa(lp62
F605.19763612747192
aI1
aa(lp63
F610.16778326034546
aI1
aa(lp64
F677.1022732257843
aI1
aa(lp65
F681.3418972492218
aI1
aa(lp66
F690.05626535415649
aI1
aa(lp67
F694.62600636482239
aI1
aa(lp68
F762.87113642692566
aI1
aa(lp69
F769.12396621704102
aI1
aa(lp70
F777.58953714370728
aI1
aa(lp71
F782.36057615280151
aI1
aa(lp72
F791.15755200386047
aI1
aa(lp73
F797.26109218597412
aI1
aa(lp74
F822.3643102645874
aI1
aa(lp75
F828.34515118598938
aI1
aa(lp76
F902.64880609512329
aI1
aa(lp77
F908.67522525787354
aI1
aa(lp78
F923.25118041038513
aI1
aa(lp79
F930.66260051727295
aI1
aa(lp80
F939.07218670845032
aI1
aa(lp81
F945.46766066551208
aI1
aa(lp82
F972.57812166213989
aI1
aa(lp83
F976.48115658760071
aI1
aa(lp84
F984.25880360603333
aI1
aa(lp85
F988.72802567481995
aI1
aa(lp86
F996.12763571739197
aI1
aa(lp87
F1000.8925457000732
aI1
aa(lp88
F1009.8863496780396
aI1
aa(lp89
F1014.6848576068878
aI1
aa(lp90
F1039.5294187068939
aI1
aa(lp91
F1044.0346438884735
aI1
aa(lp92
F1051.9638319015503
aI1
aa(lp93
F1056.5967118740082
aI1
aa(lp94
F1128.7230038642883
aI1
aa(lp95
F1135.4907007217407
aI1
aa(lp96
F1145.8154575824738
aI1
aa(lp97
F1152.0790705680847
aI1
aa(lp98
F1169.4736835956573
aI1
aa(lp99
F1174.7872126102448
aI1
aa(lp100
F1181.575154542923
aI1
aa(lp101
F1185.8339335918427
aI1
aa(lp102
F1200.1825156211853
aI1
aa(lp103
F1204.4055256843567
aI1
aasS'plan'
p104
Ns.