(dp1
S'search_time'
p2
(lp3
(lp4
F6.780987024307251
aI0
aa(lp5
F11.44039511680603
aI0
aa(lp6
F17.703149080276489
aI0
aa(lp7
F24.494097948074341
aI0
aa(lp8
F31.683826923370361
aI0
aa(lp9
F35.850798845291138
aI0
aa(lp10
F44.016177654266357
aI0
aa(lp11
F49.533778667449951
aI0
aa(lp12
F102.34020853042603
aI0
aa(lp13
F108.38077068328857
aI0
aa(lp14
F115.88812160491943
aI0
aa(lp15
F119.1421844959259
aI0
aa(lp16
F174.09925436973572
aI0
aa(lp17
F178.59170341491699
aI0
aa(lp18
F214.7278573513031
aI0
aa(lp19
F222.75869035720825
aI1
aa(lp20
F228.55927228927612
aI1
aa(lp21
F233.59154725074768
aI1
aa(lp22
F286.47554111480713
aI1
aa(lp23
F293.71174621582031
aI1
aa(lp24
F303.77531313896179
aI1
aa(lp25
F308.11729907989502
aI1
aa(lp26
F347.64976406097412
aI1
aa(lp27
F352.42958116531372
aI1
aa(lp28
F388.69765615463257
aI1
aa(lp29
F392.14628505706787
aI1
aa(lp30
F421.07754611968994
aI1
aa(lp31
F426.80695295333862
aI1
aa(lp32
F435.40304899215698
aI1
aa(lp33
F444.90718603134155
aI1
aa(lp34
F495.83949613571167
aI1
aa(lp35
F499.66397714614868
aI1
aa(lp36
F506.3185510635376
aI1
aa(lp37
F510.88014388084412
aI1
aa(lp38
F517.08210897445679
aI1
aa(lp39
F520.72255396842957
aI1
aa(lp40
F533.68236994743347
aI1
aa(lp41
F538.97509574890137
aI1
aa(lp42
F548.38394474983215
aI1
aa(lp43
F553.23492074012756
aI1
aa(lp44
F570.34359383583069
aI1
aa(lp45
F578.14660286903381
aI1
aa(lp46
F631.15350794792175
aI1
aa(lp47
F640.76942205429077
aI1
aa(lp48
F653.2463390827179
aI1
aa(lp49
F658.66229200363159
aI1
aa(lp50
F664.83051300048828
aI1
aa(lp51
F671.70725107192993
aI1
aa(lp52
F684.46268320083618
aI1
aa(lp53
F690.00056910514832
aI1
aa(lp54
F702.60409021377563
aI1
aa(lp55
F708.29885339736938
aI1
aa(lp56
F715.69109439849854
aI1
aa(lp57
F722.02741456031799
aI1
aa(lp58
F735.11147165298462
aI1
aa(lp59
F739.69381761550903
aI1
aa(lp60
F745.66839265823364
aI1
aa(lp61
F750.00924587249756
aI1
aa(lp62
F758.28532481193542
aI1
aa(lp63
F762.38343071937561
aI1
aa(lp64
F779.24882960319519
aI1
aa(lp65
F814.96286845207214
aI1
aa(lp66
F822.00940537452698
aI1
aa(lp67
F827.36911129951477
aI1
aa(lp68
F837.03558731079102
aI1
aa(lp69
F841.75914549827576
aI1
aa(lp70
F849.48462247848511
aI1
aa(lp71
F855.09237837791443
aI1
aa(lp72
F866.33291029930115
aI1
aa(lp73
F870.88905429840088
aI1
aa(lp74
F931.44677138328552
aI1
aa(lp75
F935.17467617988586
aI1
aa(lp76
F940.70406317710876
aI1
aa(lp77
F944.4265923500061
aI1
aa(lp78
F949.58528137207031
aI1
aa(lp79
F955.79286456108093
aI1
aa(lp80
F990.79822444915771
aI1
aa(lp81
F995.9822084903717
aI1
aa(lp82
F1053.6088695526123
aI1
aa(lp83
F1058.8663594722748
aI1
aa(lp84
F1067.0641033649445
aI1
aa(lp85
F1077.6257603168488
aI1
aa(lp86
F1085.3573622703552
aI1
aa(lp87
F1091.0890793800354
aI1
aa(lp88
F1099.3987183570862
aI1
aa(lp89
F1104.6988685131073
aI1
aa(lp90
F1110.6584634780884
aI1
aa(lp91
F1119.7852194309235
aI1
aa(lp92
F1173.2115685939789
aI1
aa(lp93
F1182.5885405540466
aI1
aa(lp94
F1198.8550496101379
aI1
aa(lp95
F1207.4369256496429
aI1
aa(lp96
F1232.271312713623
aI1
aa(lp97
F1236.4059019088745
aI1
aa(lp98
F1258.7786729335785
aI1
aa(lp99
F1264.4582109451294
aI1
aa(lp100
F1271.5783879756927
aI1
aa(lp101
F1280.5442390441895
aI1
aa(lp102
F1289.0380439758301
aI1
aa(lp103
F1294.6351399421692
aI1
aasS'plan'
p104
Ns.