(dp1
S'search_time'
p2
(lp3
(lp4
F9.8042130470275879
aI-1
aa(lp5
F16.146111011505127
aI-1
aa(lp6
F25.590190887451172
aI-1
aa(lp7
F33.032632827758789
aI-1
aa(lp8
F41.488953828811646
aI-1
aa(lp9
F49.048575639724731
aI-1
aa(lp10
F56.326091527938843
aI-1
aa(lp11
F62.585045337677002
aI-1
aa(lp12
F70.406665325164795
aI-1
aa(lp13
F76.761199474334717
aI-1
aa(lp14
F89.028185367584229
aI1
aa(lp15
F95.552024364471436
aI1
aa(lp16
F104.62765336036682
aI1
aa(lp17
F113.50623631477356
aI1
aa(lp18
F119.59629845619202
aI1
aa(lp19
F127.99040150642395
aI1
aa(lp20
F139.89830255508423
aI1
aa(lp21
F147.43487858772278
aI1
aa(lp22
F159.47291851043701
aI1
aa(lp23
F169.11634349822998
aI1
aa(lp24
F184.01661348342896
aI1
aa(lp25
F191.31871962547302
aI1
aa(lp26
F198.0975136756897
aI1
aa(lp27
F205.92183661460876
aI1
aa(lp28
F216.18688774108887
aI1
aa(lp29
F221.65083575248718
aI1
aa(lp30
F228.27771878242493
aI1
aa(lp31
F232.20629978179932
aI1
aa(lp32
F241.94378685951233
aI1
aa(lp33
F248.98166990280151
aI1
aa(lp34
F283.5612940788269
aI1
aa(lp35
F290.85141205787659
aI1
aa(lp36
F356.62944793701172
aI1
aa(lp37
F365.36983799934387
aI1
aa(lp38
F423.21440100669861
aI1
aa(lp39
F431.91344499588013
aI1
aa(lp40
F495.45108509063721
aI1
aa(lp41
F503.40457201004028
aI1
aa(lp42
F510.83011293411255
aI1
aa(lp43
F517.29416799545288
aI1
aa(lp44
F584.79816102981567
aI1
aa(lp45
F592.89657688140869
aI1
aa(lp46
F627.17662501335144
aI1
aa(lp47
F645.2753541469574
aI1
aa(lp48
F714.9208390712738
aI1
aa(lp49
F721.6673469543457
aI1
aa(lp50
F728.10560894012451
aI1
aa(lp51
F735.42363476753235
aI1
aa(lp52
F741.92608070373535
aI1
aa(lp53
F749.95112276077271
aI1
aa(lp54
F758.75351977348328
aI1
aa(lp55
F766.51965165138245
aI1
aa(lp56
F774.04612469673157
aI1
aa(lp57
F781.04995083808899
aI1
aa(lp58
F788.46732473373413
aI1
aa(lp59
F795.10146880149841
aI1
aa(lp60
F832.43374371528625
aI1
aa(lp61
F838.32316780090332
aI1
aa(lp62
F864.76445174217224
aI1
aa(lp63
F872.30098080635071
aI1
aa(lp64
F880.3024218082428
aI1
aa(lp65
F887.82015895843506
aI1
aa(lp66
F896.52282810211182
aI1
aa(lp67
F902.86254096031189
aI1
aa(lp68
F965.9127368927002
aI1
aa(lp69
F973.37095475196838
aI1
aa(lp70
F1033.0042657852173
aI1
aa(lp71
F1039.185950756073
aI1
aa(lp72
F1045.3927247524261
aI1
aa(lp73
F1049.0613987445831
aI1
aa(lp74
F1109.5149266719818
aI1
aa(lp75
F1116.5352745056152
aI1
aa(lp76
F1143.8025646209717
aI1
aa(lp77
F1151.0586585998535
aI1
aa(lp78
F1214.5386445522308
aI1
aa(lp79
F1224.8044385910034
aI1
aa(lp80
F1233.203159570694
aI1
aa(lp81
F1240.6534354686737
aI1
aa(lp82
F1248.4738824367523
aI1
aa(lp83
F1257.2163152694702
aI1
aa(lp84
F1263.9295763969421
aI1
aa(lp85
F1271.2200613021851
aI1
aa(lp86
F1303.3289034366608
aI1
aa(lp87
F1310.7792403697968
aI1
aa(lp88
F1370.4852595329285
aI1
aa(lp89
F1378.3179416656494
aI1
aa(lp90
F1441.1778666973114
aI1
aa(lp91
F1449.5758666992188
aI1
aa(lp92
F1514.0624978542328
aI1
aa(lp93
F1522.5652437210083
aI1
aa(lp94
F1587.0676198005676
aI1
aa(lp95
F1595.4192237854004
aI1
aa(lp96
F1622.4445300102234
aI1
aa(lp97
F1632.2071590423584
aI1
aa(lp98
F1647.6652340888977
aI1
aa(lp99
F1653.7903950214386
aI1
aa(lp100
F1660.5572400093079
aI1
aa(lp101
F1669.6756110191345
aI1
aa(lp102
F1681.6880838871002
aI1
aa(lp103
F1690.8486607074738
aI1
aasS'plan'
p104
Ns.