(dp1
S'search_time'
p2
(lp3
(lp4
F7.3377299308776855
aI-1
aa(lp5
F11.44117283821106
aI-1
aa(lp6
F19.312785863876343
aI-1
aa(lp7
F23.048200845718384
aI-1
aa(lp8
F30.020954847335815
aI-1
aa(lp9
F34.00730299949646
aI-1
aa(lp10
F43.409034967422485
aI0
aa(lp11
F47.923828125
aI0
aa(lp12
F58.512202024459839
aI0
aa(lp13
F65.100512027740479
aI0
aa(lp14
F87.81806492805481
aI0
aa(lp15
F95.224377870559692
aI0
aa(lp16
F106.92233204841614
aI0
aa(lp17
F126.62620186805725
aI0
aa(lp18
F132.7259509563446
aI0
aa(lp19
F136.4451220035553
aI0
aa(lp20
F166.98583889007568
aI0
aa(lp21
F171.22706699371338
aI0
aa(lp22
F181.22451615333557
aI0
aa(lp23
F186.43284916877747
aI0
aa(lp24
F202.32368612289429
aI0
aa(lp25
F207.07235717773438
aI0
aa(lp26
F212.954745054245
aI0
aa(lp27
F216.71542692184448
aI0
aa(lp28
F285.3894829750061
aI0
aa(lp29
F290.21225190162659
aI0
aa(lp30
F296.97374105453491
aI0
aa(lp31
F304.3291711807251
aI0
aa(lp32
F315.53475332260132
aI0
aa(lp33
F319.82514834403992
aI0
aa(lp34
F325.23558330535889
aI0
aa(lp35
F330.77242517471313
aI0
aa(lp36
F339.02785110473633
aI0
aa(lp37
F344.14328122138977
aI0
aa(lp38
F417.89494442939758
aI0
aa(lp39
F422.6343674659729
aI0
aa(lp40
F431.46031165122986
aI0
aa(lp41
F435.15187954902649
aI0
aa(lp42
F446.24516344070435
aI0
aa(lp43
F450.90005254745483
aI0
aa(lp44
F456.18415069580078
aI0
aa(lp45
F460.4382176399231
aI0
aa(lp46
F469.62403964996338
aI0
aa(lp47
F478.2123806476593
aI0
aa(lp48
F486.01909875869751
aI0
aa(lp49
F490.05720973014832
aI0
aa(lp50
F498.05591559410095
aI0
aa(lp51
F503.13232159614563
aI0
aa(lp52
F520.02221870422363
aI0
aa(lp53
F525.41256070137024
aI0
aa(lp54
F590.46261262893677
aI0
aa(lp55
F596.97729158401489
aI0
aa(lp56
F613.70524454116821
aI0
aa(lp57
F618.64407062530518
aI0
aa(lp58
F650.69213461875916
aI0
aa(lp59
F654.26464056968689
aI0
aa(lp60
F661.54360055923462
aI0
aa(lp61
F666.03316855430603
aI0
aa(lp62
F693.77096152305603
aI0
aa(lp63
F698.25376534461975
aI0
aa(lp64
F706.11202836036682
aI0
aa(lp65
F709.72390937805176
aI0
aa(lp66
F720.29815149307251
aI0
aa(lp67
F729.46040558815002
aI1
aa(lp68
F794.01613354682922
aI1
aa(lp69
F798.38880252838135
aI1
aa(lp70
F863.295738697052
aI1
aa(lp71
F871.75103950500488
aI1
aa(lp72
F941.54772353172302
aI1
aa(lp73
F946.16570138931274
aI1
aa(lp74
F959.72404146194458
aI1
aa(lp75
F964.81392645835876
aI1
aa(lp76
F1027.1244294643402
aI1
aa(lp77
F1031.8651144504547
aI1
aa(lp78
F1098.9668884277344
aI1
aa(lp79
F1105.0191073417664
aI1
aa(lp80
F1171.7405512332916
aI1
aa(lp81
F1176.1423752307892
aI1
aa(lp82
F1217.8020262718201
aI1
aa(lp83
F1224.1646842956543
aI1
aa(lp84
F1288.7979423999786
aI1
aa(lp85
F1292.7701044082642
aI1
aa(lp86
F1360.3820383548737
aI1
aa(lp87
F1364.1928672790527
aI1
aa(lp88
F1370.4858202934265
aI1
aa(lp89
F1374.8722133636475
aI1
aa(lp90
F1394.2571053504944
aI1
aa(lp91
F1397.5187251567841
aI1
aa(lp92
F1451.0374271869659
aI1
aa(lp93
F1455.5311760902405
aI1
aa(lp94
F1461.0633399486542
aI1
aa(lp95
F1467.3136610984802
aI1
aa(lp96
F1529.712541103363
aI1
aa(lp97
F1534.2851560115814
aI1
aa(lp98
F1598.4400658607483
aI1
aa(lp99
F1602.5221378803253
aI1
aa(lp100
F1608.8096039295197
aI1
aa(lp101
F1613.4431829452515
aI1
aa(lp102
F1619.0398769378662
aI1
aa(lp103
F1623.6517009735107
aI1
aasS'plan'
p104
Ns.