(dp1
S'search_time'
p2
(lp3
(lp4
F6.3503379821777344
aI-2
aa(lp5
F12.755379915237427
aI-2
aa(lp6
F19.69953989982605
aI-1
aa(lp7
F25.235635995864868
aI-1
aa(lp8
F30.783815145492554
aI-1
aa(lp9
F36.524816274642944
aI-1
aa(lp10
F43.961065292358398
aI-1
aa(lp11
F49.605464220046997
aI-1
aa(lp12
F58.853618144989014
aI1
aa(lp13
F64.885658979415894
aI1
aa(lp14
F70.280266046524048
aI1
aa(lp15
F77.863677978515625
aI1
aa(lp16
F83.46751594543457
aI1
aa(lp17
F91.224406003952026
aI1
aa(lp18
F97.813886880874634
aI1
aa(lp19
F103.55874967575073
aI1
aa(lp20
F111.19077587127686
aI1
aa(lp21
F117.95286297798157
aI1
aa(lp22
F151.53577995300293
aI1
aa(lp23
F157.17662382125854
aI1
aa(lp24
F164.92062377929688
aI1
aa(lp25
F170.64360189437866
aI1
aa(lp26
F223.64755177497864
aI1
aa(lp27
F231.40587759017944
aI1
aa(lp28
F251.9650354385376
aI1
aa(lp29
F258.73478937149048
aI1
aa(lp30
F272.66154623031616
aI1
aa(lp31
F279.3481662273407
aI1
aa(lp32
F295.00454711914062
aI1
aa(lp33
F300.84736895561218
aI1
aa(lp34
F307.15142583847046
aI1
aa(lp35
F313.28628778457642
aI1
aa(lp36
F323.09177470207214
aI1
aa(lp37
F328.91301488876343
aI1
aa(lp38
F352.50076293945312
aI1
aa(lp39
F360.11648106575012
aI1
aa(lp40
F366.95356702804565
aI1
aa(lp41
F373.11972117424011
aI1
aa(lp42
F393.04586505889893
aI1
aa(lp43
F398.71769309043884
aI1
aa(lp44
F403.91674590110779
aI1
aa(lp45
F408.96337604522705
aI1
aa(lp46
F417.49165511131287
aI1
aa(lp47
F426.71089601516724
aI1
aa(lp48
F433.20824503898621
aI1
aa(lp49
F438.21596097946167
aI1
aa(lp50
F443.86813902854919
aI1
aa(lp51
F448.77093291282654
aI1
aa(lp52
F460.51267671585083
aI1
aa(lp53
F464.02966165542603
aI1
aa(lp54
F477.41268563270569
aI1
aa(lp55
F482.57317161560059
aI1
aa(lp56
F536.42172145843506
aI1
aa(lp57
F551.26554846763611
aI1
aa(lp58
F572.13473653793335
aI1
aa(lp59
F577.62269759178162
aI1
aa(lp60
F633.51485872268677
aI1
aa(lp61
F639.64179563522339
aI1
aa(lp62
F690.70929169654846
aI1
aa(lp63
F697.00400376319885
aI1
aa(lp64
F749.49393963813782
aI1
aa(lp65
F758.14387655258179
aI1
aa(lp66
F769.16136860847473
aI1
aa(lp67
F775.62884163856506
aI1
aa(lp68
F781.35842752456665
aI1
aa(lp69
F786.79181551933289
aI1
aa(lp70
F802.08410668373108
aI1
aa(lp71
F808.96237564086914
aI1
aa(lp72
F819.32706165313721
aI1
aa(lp73
F824.43502569198608
aI1
aa(lp74
F835.52361083030701
aI1
aa(lp75
F839.66265678405762
aI1
aa(lp76
F860.62697768211365
aI1
aa(lp77
F864.41782569885254
aI1
aa(lp78
F882.92007374763489
aI1
aa(lp79
F887.72536373138428
aI1
aa(lp80
F899.19363975524902
aI1
aa(lp81
F907.5453827381134
aI1
aa(lp82
F958.21755385398865
aI1
aa(lp83
F964.81914281845093
aI1
aa(lp84
F980.09061884880066
aI1
aa(lp85
F986.88875102996826
aI1
aa(lp86
F996.91253089904785
aI1
aa(lp87
F1003.2904939651489
aI1
aa(lp88
F1010.6878790855408
aI1
aa(lp89
F1016.2470450401306
aI1
aa(lp90
F1034.0618860721588
aI1
aa(lp91
F1039.6136410236359
aI1
aa(lp92
F1047.1373391151428
aI1
aa(lp93
F1053.0226140022278
aI1
aa(lp94
F1104.6751279830933
aI1
aa(lp95
F1111.74085688591
aI1
aa(lp96
F1165.2348697185516
aI1
aa(lp97
F1172.252546787262
aI1
aa(lp98
F1225.1087617874146
aI1
aa(lp99
F1231.6132388114929
aI1
aa(lp100
F1257.0094797611237
aI1
aa(lp101
F1264.6113038063049
aI1
aa(lp102
F1319.9031887054443
aI1
aa(lp103
F1327.7235176563263
aI1
aasS'plan'
p104
Ns.