(dp1
S'search_time'
p2
(lp3
(lp4
F5.6023910045623779
aI-2
aa(lp5
F10.510673999786377
aI-2
aa(lp6
F16.861238956451416
aI-2
aa(lp7
F21.356914043426514
aI-2
aa(lp8
F27.302325010299683
aI-1
aa(lp9
F31.811221122741699
aI-1
aa(lp10
F38.168467044830322
aI-1
aa(lp11
F41.933439970016479
aI-1
aa(lp12
F46.020408868789673
aI-1
aa(lp13
F53.208167791366577
aI0
aa(lp14
F106.13555479049683
aI0
aa(lp15
F110.22947669029236
aI0
aa(lp16
F163.95912575721741
aI0
aa(lp17
F176.10711359977722
aI1
aa(lp18
F182.46254253387451
aI1
aa(lp19
F188.80263066291809
aI1
aa(lp20
F216.23824882507324
aI1
aa(lp21
F224.8879828453064
aI1
aa(lp22
F233.44296479225159
aI1
aa(lp23
F238.04067373275757
aI1
aa(lp24
F243.29294872283936
aI1
aa(lp25
F256.37403774261475
aI1
aa(lp26
F262.54040455818176
aI1
aa(lp27
F267.2932915687561
aI1
aa(lp28
F274.92142963409424
aI1
aa(lp29
F279.57086277008057
aI1
aa(lp30
F284.63993072509766
aI1
aa(lp31
F290.56354975700378
aI1
aa(lp32
F309.26572465896606
aI1
aa(lp33
F315.02941966056824
aI1
aa(lp34
F328.46905660629272
aI1
aa(lp35
F334.56740665435791
aI1
aa(lp36
F399.17710566520691
aI1
aa(lp37
F403.81773662567139
aI1
aa(lp38
F412.3636634349823
aI1
aa(lp39
F418.31189250946045
aI1
aa(lp40
F475.74911546707153
aI1
aa(lp41
F482.5260705947876
aI1
aa(lp42
F493.41921353340149
aI1
aa(lp43
F498.75087738037109
aI1
aa(lp44
F505.85978436470032
aI1
aa(lp45
F515.24677038192749
aI1
aa(lp46
F520.19705152511597
aI1
aa(lp47
F525.34018850326538
aI1
aa(lp48
F585.73070931434631
aI1
aa(lp49
F591.64848136901855
aI1
aa(lp50
F608.74527335166931
aI1
aa(lp51
F612.88012838363647
aI1
aa(lp52
F618.86281943321228
aI1
aa(lp53
F623.02599740028381
aI1
aa(lp54
F646.72979640960693
aI1
aa(lp55
F650.90780234336853
aI1
aa(lp56
F664.21111726760864
aI1
aa(lp57
F668.72934627532959
aI1
aa(lp58
F677.14518928527832
aI1
aa(lp59
F683.00852012634277
aI1
aa(lp60
F693.52958917617798
aI1
aa(lp61
F697.93583512306213
aI1
aa(lp62
F734.79718899726868
aI1
aa(lp63
F739.87709307670593
aI1
aa(lp64
F754.6434268951416
aI1
aa(lp65
F762.05160093307495
aI1
aa(lp66
F818.69300603866577
aI1
aa(lp67
F823.75952625274658
aI1
aa(lp68
F840.48036408424377
aI1
aa(lp69
F853.78251218795776
aI1
aa(lp70
F865.47585511207581
aI1
aa(lp71
F869.82557511329651
aI1
aa(lp72
F874.82626605033875
aI1
aa(lp73
F892.24491882324219
aI1
aa(lp74
F898.31277275085449
aI1
aa(lp75
F904.40197777748108
aI1
aa(lp76
F937.40767168998718
aI1
aa(lp77
F943.46716570854187
aI1
aa(lp78
F949.79879879951477
aI1
aa(lp79
F955.48260283470154
aI1
aa(lp80
F967.61495184898376
aI1
aa(lp81
F973.32781386375427
aI1
aa(lp82
F1032.8084788322449
aI1
aa(lp83
F1038.9678027629852
aI1
aa(lp84
F1078.3810529708862
aI1
aa(lp85
F1083.0092339515686
aI1
aa(lp86
F1089.65855884552
aI1
aa(lp87
F1094.7724628448486
aI1
aa(lp88
F1104.6988990306854
aI1
aa(lp89
F1109.190612077713
aI1
aa(lp90
F1122.0608279705048
aI1
aa(lp91
F1127.2996728420258
aI1
aa(lp92
F1134.3882477283478
aI1
aa(lp93
F1140.7416586875916
aI1
aa(lp94
F1146.1004507541656
aI1
aa(lp95
F1150.9922847747803
aI1
aa(lp96
F1179.9020607471466
aI1
aa(lp97
F1185.7601337432861
aI1
aa(lp98
F1200.520361661911
aI1
aa(lp99
F1207.6856827735901
aI1
aa(lp100
F1215.1162188053131
aI1
aa(lp101
F1220.6344268321991
aI1
aa(lp102
F1227.3561778068542
aI1
aa(lp103
F1232.7126297950745
aI1
aasS'plan'
p104
Ns.