(dp1
S'search_time'
p2
(lp3
(lp4
F8.3970448970794678
aI-1
aa(lp5
F14.169282913208008
aI-1
aa(lp6
F20.117581844329834
aI-1
aa(lp7
F28.999977827072144
aI0
aa(lp8
F35.21356201171875
aI0
aa(lp9
F40.121090888977051
aI0
aa(lp10
F47.277067899703979
aI0
aa(lp11
F51.461816072463989
aI0
aa(lp12
F61.971006155014038
aI1
aa(lp13
F68.446633100509644
aI1
aa(lp14
F79.078612089157104
aI1
aa(lp15
F87.122268199920654
aI1
aa(lp16
F95.114323377609253
aI1
aa(lp17
F104.45422744750977
aI1
aa(lp18
F113.55128741264343
aI1
aa(lp19
F120.9163134098053
aI1
aa(lp20
F128.84167146682739
aI1
aa(lp21
F134.48285865783691
aI1
aa(lp22
F143.40383362770081
aI1
aa(lp23
F150.48652148246765
aI1
aa(lp24
F160.29887247085571
aI1
aa(lp25
F165.72990846633911
aI1
aa(lp26
F181.18710136413574
aI1
aa(lp27
F187.47036027908325
aI1
aa(lp28
F263.21925926208496
aI1
aa(lp29
F268.80747127532959
aI1
aa(lp30
F289.99603533744812
aI1
aa(lp31
F295.26256942749023
aI1
aa(lp32
F369.32550740242004
aI1
aa(lp33
F374.47746253013611
aI1
aa(lp34
F385.21889662742615
aI1
aa(lp35
F390.6619246006012
aI1
aa(lp36
F397.86235475540161
aI1
aa(lp37
F405.1735987663269
aI1
aa(lp38
F417.56211876869202
aI1
aa(lp39
F423.96633982658386
aI1
aa(lp40
F430.59997987747192
aI1
aa(lp41
F440.0488920211792
aI1
aa(lp42
F446.80590009689331
aI1
aa(lp43
F453.67385816574097
aI1
aa(lp44
F482.04179716110229
aI1
aa(lp45
F487.20920515060425
aI1
aa(lp46
F559.07182216644287
aI1
aa(lp47
F565.18351030349731
aI1
aa(lp48
F571.7142333984375
aI1
aa(lp49
F577.56341242790222
aI1
aa(lp50
F583.94958138465881
aI1
aa(lp51
F588.5523464679718
aI1
aa(lp52
F597.49869656562805
aI1
aa(lp53
F604.812171459198
aI1
aa(lp54
F681.29133129119873
aI1
aa(lp55
F685.65351629257202
aI1
aa(lp56
F696.59120416641235
aI1
aa(lp57
F702.93500518798828
aI1
aa(lp58
F712.17838025093079
aI1
aa(lp59
F719.13426327705383
aI1
aa(lp60
F725.67697715759277
aI1
aa(lp61
F731.91495108604431
aI1
aa(lp62
F743.40484428405762
aI1
aa(lp63
F747.56564617156982
aI1
aa(lp64
F754.26658940315247
aI1
aa(lp65
F760.08682250976562
aI1
aa(lp66
F765.60812544822693
aI1
aa(lp67
F771.60282945632935
aI1
aa(lp68
F816.02320742607117
aI1
aa(lp69
F821.44387722015381
aI1
aa(lp70
F859.82575225830078
aI1
aa(lp71
F865.77396726608276
aI1
aa(lp72
F948.3933322429657
aI1
aa(lp73
F954.55725836753845
aI1
aa(lp74
F1038.9865925312042
aI1
aa(lp75
F1043.6400985717773
aI1
aa(lp76
F1079.557802438736
aI1
aa(lp77
F1086.821854352951
aI1
aa(lp78
F1107.0973284244537
aI1
aa(lp79
F1112.0921113491058
aI1
aa(lp80
F1189.722261428833
aI1
aa(lp81
F1199.8338184356689
aI1
aa(lp82
F1246.5537483692169
aI1
aa(lp83
F1253.6259112358093
aI1
aa(lp84
F1340.0620133876801
aI1
aa(lp85
F1344.676563501358
aI1
aa(lp86
F1351.271208524704
aI1
aa(lp87
F1355.9795956611633
aI1
aa(lp88
F1437.6290595531464
aI1
aa(lp89
F1442.4983375072479
aI1
aa(lp90
F1517.55211353302
aI1
aa(lp91
F1523.8426265716553
aI1
aa(lp92
F1532.8797097206116
aI1
aa(lp93
F1537.6302318572998
aI1
aa(lp94
F1554.0853328704834
aI1
aa(lp95
F1560.9601058959961
aI1
aa(lp96
F1636.5337378978729
aI1
aa(lp97
F1640.9023389816284
aI1
aa(lp98
F1716.2868058681488
aI1
aa(lp99
F1724.1168007850647
aI1
aa(lp100
F1735.2382917404175
aI1
aa(lp101
F1743.4064817428589
aI1
aa(lp102
F1755.2695078849792
aI1
aa(lp103
F1760.7856290340424
aI1
aasS'plan'
p104
Ns.