(dp1
S'search_time'
p2
(lp3
(lp4
F8.9084320068359375
aI-1
aa(lp5
F13.935736894607544
aI-1
aa(lp6
F20.853266954421997
aI-1
aa(lp7
F25.992081880569458
aI-1
aa(lp8
F32.993520021438599
aI0
aa(lp9
F38.739892959594727
aI0
aa(lp10
F45.278659820556641
aI0
aa(lp11
F53.00605297088623
aI0
aa(lp12
F61.366199970245361
aI0
aa(lp13
F66.046577930450439
aI0
aa(lp14
F70.926256895065308
aI0
aa(lp15
F76.277296781539917
aI0
aa(lp16
F150.23924160003662
aI0
aa(lp17
F156.49892544746399
aI0
aa(lp18
F164.70128440856934
aI0
aa(lp19
F170.83832454681396
aI0
aa(lp20
F176.87575650215149
aI0
aa(lp21
F183.68468761444092
aI0
aa(lp22
F193.19795846939087
aI0
aa(lp23
F198.08244156837463
aI0
aa(lp24
F207.12742757797241
aI0
aa(lp25
F212.22995853424072
aI0
aa(lp26
F218.52366757392883
aI0
aa(lp27
F224.06253457069397
aI0
aa(lp28
F261.19453763961792
aI0
aa(lp29
F265.26170468330383
aI0
aa(lp30
F273.35408449172974
aI0
aa(lp31
F277.6868953704834
aI0
aa(lp32
F287.19722437858582
aI0
aa(lp33
F291.61900734901428
aI0
aa(lp34
F300.12644720077515
aI0
aa(lp35
F304.39102411270142
aI0
aa(lp36
F316.77295708656311
aI0
aa(lp37
F321.92037224769592
aI0
aa(lp38
F341.73502135276794
aI0
aa(lp39
F346.54771947860718
aI0
aa(lp40
F356.15123152732849
aI0
aa(lp41
F360.83413362503052
aI0
aa(lp42
F370.85623955726624
aI0
aa(lp43
F375.77688360214233
aI0
aa(lp44
F447.84889578819275
aI0
aa(lp45
F452.46431374549866
aI0
aa(lp46
F464.68498754501343
aI0
aa(lp47
F470.08368539810181
aI0
aa(lp48
F483.37067341804504
aI0
aa(lp49
F488.76891732215881
aI0
aa(lp50
F494.69351243972778
aI0
aa(lp51
F499.5082745552063
aI0
aa(lp52
F524.42501640319824
aI0
aa(lp53
F534.43179130554199
aI0
aa(lp54
F541.17373919487
aI0
aa(lp55
F551.73126220703125
aI0
aa(lp56
F603.66806817054749
aI0
aa(lp57
F609.03338932991028
aI0
aa(lp58
F678.989901304245
aI0
aa(lp59
F688.55904841423035
aI1
aa(lp60
F694.19319033622742
aI1
aa(lp61
F699.98650217056274
aI1
aa(lp62
F705.75664806365967
aI1
aa(lp63
F711.4193332195282
aI1
aa(lp64
F744.86893725395203
aI1
aa(lp65
F755.80338335037231
aI1
aa(lp66
F769.9457151889801
aI1
aa(lp67
F774.14834499359131
aI1
aa(lp68
F781.96761918067932
aI1
aa(lp69
F791.04377317428589
aI1
aa(lp70
F832.07897305488586
aI1
aa(lp71
F836.69225311279297
aI1
aa(lp72
F873.18140697479248
aI1
aa(lp73
F877.31055283546448
aI1
aa(lp74
F956.88594675064087
aI1
aa(lp75
F964.43982481956482
aI1
aa(lp76
F973.82071375846863
aI1
aa(lp77
F981.46986198425293
aI1
aa(lp78
F991.77210688591003
aI1
aa(lp79
F996.62951898574829
aI1
aa(lp80
F1002.8618741035461
aI1
aa(lp81
F1011.1670479774475
aI1
aa(lp82
F1018.5881559848785
aI1
aa(lp83
F1025.4897339344025
aI1
aa(lp84
F1077.3898048400879
aI1
aa(lp85
F1081.9962089061737
aI1
aa(lp86
F1111.8795809745789
aI1
aa(lp87
F1116.2507059574127
aI1
aa(lp88
F1123.2375638484955
aI1
aa(lp89
F1127.7792139053345
aI1
aa(lp90
F1148.5338237285614
aI1
aa(lp91
F1153.5649056434631
aI1
aa(lp92
F1160.8024325370789
aI1
aa(lp93
F1166.3745985031128
aI1
aa(lp94
F1173.1751315593719
aI1
aa(lp95
F1177.3645803928375
aI1
aa(lp96
F1182.6079335212708
aI1
aa(lp97
F1188.6344926357269
aI1
aa(lp98
F1257.2143795490265
aI1
aa(lp99
F1264.3513383865356
aI1
aa(lp100
F1279.2537446022034
aI1
aa(lp101
F1285.4506914615631
aI1
aa(lp102
F1365.2501435279846
aI1
aa(lp103
F1370.6123895645142
aI1
aasS'plan'
p104
Ns.