(dp1
S'search_time'
p2
(lp3
(lp4
F8.4303510189056396
aI-1
aa(lp5
F15.441618919372559
aI-1
aa(lp6
F21.974485874176025
aI-1
aa(lp7
F26.892153024673462
aI-1
aa(lp8
F36.234409093856812
aI0
aa(lp9
F41.704787254333496
aI0
aa(lp10
F50.714675188064575
aI0
aa(lp11
F56.521603107452393
aI0
aa(lp12
F64.412346124649048
aI0
aa(lp13
F69.600564241409302
aI0
aa(lp14
F75.590528249740601
aI0
aa(lp15
F80.762566089630127
aI0
aa(lp16
F92.180968046188354
aI0
aa(lp17
F97.621981143951416
aI0
aa(lp18
F166.96373605728149
aI1
aa(lp19
F172.18253111839294
aI1
aa(lp20
F184.05163812637329
aI1
aa(lp21
F189.62910509109497
aI1
aa(lp22
F196.76501488685608
aI1
aa(lp23
F202.52721881866455
aI1
aa(lp24
F211.89006972312927
aI1
aa(lp25
F217.67066264152527
aI1
aa(lp26
F244.40691661834717
aI1
aa(lp27
F249.70921468734741
aI1
aa(lp28
F257.06501460075378
aI1
aa(lp29
F262.42008852958679
aI1
aa(lp30
F279.93482542037964
aI1
aa(lp31
F290.19578337669373
aI1
aa(lp32
F299.53499841690063
aI1
aa(lp33
F305.69421458244324
aI1
aa(lp34
F318.10659646987915
aI1
aa(lp35
F324.50539660453796
aI1
aa(lp36
F338.38392567634583
aI1
aa(lp37
F347.01157784461975
aI1
aa(lp38
F359.68929386138916
aI1
aa(lp39
F365.97014880180359
aI1
aa(lp40
F373.39735388755798
aI1
aa(lp41
F378.69825005531311
aI1
aa(lp42
F447.35528707504272
aI1
aa(lp43
F453.33370494842529
aI1
aa(lp44
F462.60974907875061
aI1
aa(lp45
F467.67268919944763
aI1
aa(lp46
F473.77761316299438
aI1
aa(lp47
F480.51644420623779
aI1
aa(lp48
F487.95305919647217
aI1
aa(lp49
F496.84461617469788
aI1
aa(lp50
F503.96779918670654
aI1
aa(lp51
F508.48696827888489
aI1
aa(lp52
F528.17461633682251
aI1
aa(lp53
F534.08123922348022
aI1
aa(lp54
F557.9674961566925
aI1
aa(lp55
F564.42998623847961
aI1
aa(lp56
F580.61209416389465
aI1
aa(lp57
F585.00035214424133
aI1
aa(lp58
F606.10795521736145
aI1
aa(lp59
F613.39146399497986
aI1
aa(lp60
F624.7008159160614
aI1
aa(lp61
F632.31843900680542
aI1
aa(lp62
F697.87534308433533
aI1
aa(lp63
F702.98900604248047
aI1
aa(lp64
F757.77306509017944
aI1
aa(lp65
F762.93019819259644
aI1
aa(lp66
F773.86549234390259
aI1
aa(lp67
F779.72627329826355
aI1
aa(lp68
F786.40941333770752
aI1
aa(lp69
F792.22191333770752
aI1
aa(lp70
F859.59408831596375
aI1
aa(lp71
F866.012282371521
aI1
aa(lp72
F937.08493232727051
aI1
aa(lp73
F942.50177955627441
aI1
aa(lp74
F954.99845743179321
aI1
aa(lp75
F964.62486743927002
aI1
aa(lp76
F987.63444757461548
aI1
aa(lp77
F993.71218061447144
aI1
aa(lp78
F1061.4503786563873
aI1
aa(lp79
F1069.0197746753693
aI1
aa(lp80
F1083.1565706729889
aI1
aa(lp81
F1087.7690615653992
aI1
aa(lp82
F1097.4585945606232
aI1
aa(lp83
F1103.926328420639
aI1
aa(lp84
F1112.0267844200134
aI1
aa(lp85
F1116.7379884719849
aI1
aa(lp86
F1128.1273925304413
aI1
aa(lp87
F1133.3666694164276
aI1
aa(lp88
F1143.5838024616241
aI1
aa(lp89
F1150.539802312851
aI1
aa(lp90
F1167.4100253582001
aI1
aa(lp91
F1172.8432323932648
aI1
aa(lp92
F1184.0025153160095
aI1
aa(lp93
F1190.5687882900238
aI1
aa(lp94
F1231.2682852745056
aI1
aa(lp95
F1239.9235343933105
aI1
aa(lp96
F1247.3916983604431
aI1
aa(lp97
F1254.0660774707794
aI1
aa(lp98
F1260.9461405277252
aI1
aa(lp99
F1266.7608506679535
aI1
aa(lp100
F1273.0781965255737
aI1
aa(lp101
F1280.7301924228668
aI1
aa(lp102
F1291.3692004680634
aI1
aa(lp103
F1299.336371421814
aI1
aasS'plan'
p104
Ns.