(dp1
S'search_time'
p2
(lp3
(lp4
F6.8341410160064697
aI-2
aa(lp5
F13.825227022171021
aI-2
aa(lp6
F21.007591009140015
aI-1
aa(lp7
F25.82385516166687
aI-1
aa(lp8
F31.778657197952271
aI-1
aa(lp9
F35.748550176620483
aI-1
aa(lp10
F44.52359414100647
aI-1
aa(lp11
F50.687958240509033
aI-1
aa(lp12
F59.722451210021973
aI-1
aa(lp13
F66.014417409896851
aI-1
aa(lp14
F73.351269245147705
aI-1
aa(lp15
F80.153531074523926
aI-1
aa(lp16
F96.871904134750366
aI-1
aa(lp17
F106.31213521957397
aI-1
aa(lp18
F113.46766138076782
aI-1
aa(lp19
F119.85457444190979
aI-1
aa(lp20
F128.53759551048279
aI-1
aa(lp21
F135.90923738479614
aI-1
aa(lp22
F146.24527645111084
aI-1
aa(lp23
F151.95021557807922
aI-1
aa(lp24
F157.04126572608948
aI-1
aa(lp25
F160.98170757293701
aI-1
aa(lp26
F167.03529763221741
aI-1
aa(lp27
F172.86643767356873
aI-1
aa(lp28
F184.63173961639404
aI0
aa(lp29
F189.75248050689697
aI0
aa(lp30
F239.0269775390625
aI0
aa(lp31
F246.80708861351013
aI0
aa(lp32
F252.51696181297302
aI0
aa(lp33
F259.94920682907104
aI0
aa(lp34
F270.81836700439453
aI0
aa(lp35
F277.65259695053101
aI0
aa(lp36
F291.203125
aI0
aa(lp37
F296.84209513664246
aI0
aa(lp38
F309.09550309181213
aI0
aa(lp39
F317.28203296661377
aI0
aa(lp40
F324.83543801307678
aI0
aa(lp41
F331.51924514770508
aI0
aa(lp42
F339.07084918022156
aI0
aa(lp43
F344.99746823310852
aI0
aa(lp44
F395.27413821220398
aI0
aa(lp45
F402.72552609443665
aI0
aa(lp46
F409.02652406692505
aI0
aa(lp47
F415.07747411727905
aI0
aa(lp48
F424.43462610244751
aI0
aa(lp49
F432.77728605270386
aI0
aa(lp50
F446.54185223579407
aI0
aa(lp51
F453.83520412445068
aI0
aa(lp52
F460.48611307144165
aI0
aa(lp53
F467.17275404930115
aI0
aa(lp54
F517.04756712913513
aI0
aa(lp55
F522.00230526924133
aI0
aa(lp56
F529.78164625167847
aI0
aa(lp57
F536.29506516456604
aI0
aa(lp58
F542.12386727333069
aI0
aa(lp59
F549.51128029823303
aI0
aa(lp60
F557.314049243927
aI0
aa(lp61
F562.60164618492126
aI0
aa(lp62
F573.92637133598328
aI0
aa(lp63
F580.14527630805969
aI0
aa(lp64
F589.55581426620483
aI0
aa(lp65
F594.67290306091309
aI0
aa(lp66
F601.80195307731628
aI0
aa(lp67
F606.89993190765381
aI0
aa(lp68
F614.91011381149292
aI0
aa(lp69
F620.51035690307617
aI0
aa(lp70
F649.8015148639679
aI0
aa(lp71
F656.59389686584473
aI0
aa(lp72
F664.96006393432617
aI0
aa(lp73
F672.68604588508606
aI0
aa(lp74
F688.3823618888855
aI0
aa(lp75
F695.92870283126831
aI0
aa(lp76
F704.49455189704895
aI0
aa(lp77
F712.9474139213562
aI0
aa(lp78
F727.14542007446289
aI0
aa(lp79
F733.69413924217224
aI0
aa(lp80
F768.27419829368591
aI0
aa(lp81
F776.71296310424805
aI0
aa(lp82
F782.73064517974854
aI0
aa(lp83
F791.17383003234863
aI1
aa(lp84
F845.49178290367126
aI1
aa(lp85
F852.32527685165405
aI1
aa(lp86
F904.61786293983459
aI1
aa(lp87
F910.07340002059937
aI1
aa(lp88
F921.53193807601929
aI1
aa(lp89
F930.01001405715942
aI1
aa(lp90
F942.49310612678528
aI1
aa(lp91
F949.32872724533081
aI1
aa(lp92
F956.70137238502502
aI1
aa(lp93
F964.77949237823486
aI1
aa(lp94
F982.47233319282532
aI1
aa(lp95
F989.57850933074951
aI1
aa(lp96
F996.79048633575439
aI1
aa(lp97
F1003.46391248703
aI1
aa(lp98
F1050.1902422904968
aI1
aa(lp99
F1057.4744641780853
aI1
aa(lp100
F1106.0960793495178
aI1
aa(lp101
F1114.0935242176056
aI1
aa(lp102
F1163.9971354007721
aI1
aa(lp103
F1170.0305042266846
aI1
aasS'plan'
p104
Ns.