(dp1
S'search_time'
p2
(lp3
(lp4
F20.386119842529297
aI-1
aa(lp5
F31.73541784286499
aI-1
aa(lp6
F43.56316089630127
aI-1
aa(lp7
F52.732253789901733
aI-1
aa(lp8
F62.177445888519287
aI-1
aa(lp9
F72.446416854858398
aI-1
aa(lp10
F85.946710824966431
aI-1
aa(lp11
F94.218315839767456
aI-1
aa(lp12
F107.95337796211243
aI-1
aa(lp13
F116.92052388191223
aI-1
aa(lp14
F128.00715589523315
aI-1
aa(lp15
F134.1454119682312
aI-1
aa(lp16
F143.45273590087891
aI-1
aa(lp17
F155.18403172492981
aI-1
aa(lp18
F166.8637547492981
aI-1
aa(lp19
F179.96375274658203
aI0
aa(lp20
F189.25809764862061
aI0
aa(lp21
F196.45541262626648
aI0
aa(lp22
F207.6057345867157
aI0
aa(lp23
F216.1501317024231
aI0
aa(lp24
F278.29623174667358
aI0
aa(lp25
F286.5595588684082
aI0
aa(lp26
F359.85155272483826
aI1
aa(lp27
F364.9327027797699
aI1
aa(lp28
F374.0747697353363
aI1
aa(lp29
F385.06417059898376
aI1
aa(lp30
F393.50730657577515
aI1
aa(lp31
F404.09889769554138
aI1
aa(lp32
F411.83429980278015
aI1
aa(lp33
F432.25216579437256
aI1
aa(lp34
F447.58710980415344
aI1
aa(lp35
F455.41691374778748
aI1
aa(lp36
F466.43607664108276
aI1
aa(lp37
F476.68048572540283
aI1
aa(lp38
F505.70490574836731
aI1
aa(lp39
F518.21834564208984
aI1
aa(lp40
F529.97411155700684
aI1
aa(lp41
F540.57682847976685
aI1
aa(lp42
F561.76025748252869
aI1
aa(lp43
F572.10876059532166
aI1
aa(lp44
F585.01214265823364
aI1
aa(lp45
F599.4514536857605
aI1
aa(lp46
F636.83828163146973
aI1
aa(lp47
F644.49310970306396
aI1
aa(lp48
F659.18384671211243
aI1
aa(lp49
F667.38370871543884
aI1
aa(lp50
F680.5556366443634
aI1
aa(lp51
F695.24743461608887
aI1
aa(lp52
F764.63660573959351
aI1
aa(lp53
F775.4498815536499
aI1
aa(lp54
F837.60013270378113
aI1
aa(lp55
F846.1953136920929
aI1
aa(lp56
F855.94871068000793
aI1
aa(lp57
F865.19301056861877
aI1
aa(lp58
F875.92972254753113
aI1
aa(lp59
F882.67479467391968
aI1
aa(lp60
F892.62824368476868
aI1
aa(lp61
F906.88075065612793
aI1
aa(lp62
F971.78135061264038
aI1
aa(lp63
F978.39664077758789
aI1
aa(lp64
F989.33923578262329
aI1
aa(lp65
F997.6810576915741
aI1
aa(lp66
F1063.0751407146454
aI1
aa(lp67
F1073.7711596488953
aI1
aa(lp68
F1087.9836835861206
aI1
aa(lp69
F1098.677633523941
aI1
aa(lp70
F1148.4700894355774
aI1
aa(lp71
F1159.4074814319611
aI1
aa(lp72
F1214.6437072753906
aI1
aa(lp73
F1222.7091083526611
aI1
aa(lp74
F1234.935619354248
aI1
aa(lp75
F1246.5026462078094
aI1
aa(lp76
F1259.1432931423187
aI1
aa(lp77
F1269.1970653533936
aI1
aa(lp78
F1280.4940731525421
aI1
aa(lp79
F1288.790892124176
aI1
aa(lp80
F1297.2831151485443
aI1
aa(lp81
F1306.4926640987396
aI1
aa(lp82
F1317.0153551101685
aI1
aa(lp83
F1325.1488280296326
aI1
aa(lp84
F1336.0121898651123
aI1
aa(lp85
F1341.9727518558502
aI1
aa(lp86
F1407.4464778900146
aI1
aa(lp87
F1418.2738440036774
aI1
aa(lp88
F1449.5675818920135
aI1
aa(lp89
F1457.7673788070679
aI1
aa(lp90
F1499.7630207538605
aI1
aa(lp91
F1511.6811547279358
aI1
aa(lp92
F1527.6585626602173
aI1
aa(lp93
F1542.0518486499786
aI1
aa(lp94
F1550.821234703064
aI1
aa(lp95
F1558.2115306854248
aI1
aa(lp96
F1619.1009125709534
aI1
aa(lp97
F1628.4437737464905
aI1
aa(lp98
F1686.4653508663177
aI1
aa(lp99
F1692.8032598495483
aI1
aa(lp100
F1701.1434648036957
aI1
aa(lp101
F1707.6380178928375
aI1
aa(lp102
F1718.7408609390259
aI1
aa(lp103
F1727.3397581577301
aI1
aasS'plan'
p104
Ns.