(dp1
S'search_time'
p2
(lp3
(lp4
F8.1980578899383545
aI-1
aa(lp5
F15.601300716400146
aI-1
aa(lp6
F23.050331830978394
aI-1
aa(lp7
F30.163232803344727
aI-1
aa(lp8
F41.159893751144409
aI-1
aa(lp9
F48.269057750701904
aI-1
aa(lp10
F54.758654594421387
aI-1
aa(lp11
F64.650039434432983
aI-1
aa(lp12
F75.767992258071899
aI-1
aa(lp13
F83.221761226654053
aI-1
aa(lp14
F146.80888438224792
aI-1
aa(lp15
F152.63371157646179
aI-1
aa(lp16
F161.84091448783875
aI-1
aa(lp17
F168.05138254165649
aI-1
aa(lp18
F185.60687947273254
aI-1
aa(lp19
F191.71074151992798
aI-1
aa(lp20
F208.08796954154968
aI-1
aa(lp21
F215.21617960929871
aI-1
aa(lp22
F222.23833060264587
aI-1
aa(lp23
F229.17882466316223
aI-1
aa(lp24
F242.5778386592865
aI-1
aa(lp25
F248.62912654876709
aI-1
aa(lp26
F256.93338060379028
aI-1
aa(lp27
F263.08200359344482
aI-1
aa(lp28
F274.84742665290833
aI0
aa(lp29
F280.82130861282349
aI0
aa(lp30
F297.73938870429993
aI0
aa(lp31
F310.46381783485413
aI0
aa(lp32
F317.80674195289612
aI0
aa(lp33
F324.06745195388794
aI0
aa(lp34
F409.54376482963562
aI0
aa(lp35
F421.15794372558594
aI0
aa(lp36
F429.15612959861755
aI0
aa(lp37
F435.01481556892395
aI0
aa(lp38
F472.35112738609314
aI0
aa(lp39
F479.60282230377197
aI0
aa(lp40
F492.80784130096436
aI0
aa(lp41
F499.56273627281189
aI0
aa(lp42
F567.45669341087341
aI0
aa(lp43
F574.07801938056946
aI0
aa(lp44
F605.40143632888794
aI0
aa(lp45
F611.78043437004089
aI0
aa(lp46
F648.67023324966431
aI0
aa(lp47
F655.00277924537659
aI0
aa(lp48
F662.34383940696716
aI0
aa(lp49
F668.32576131820679
aI0
aa(lp50
F721.03609848022461
aI0
aa(lp51
F728.97790026664734
aI0
aa(lp52
F740.20398831367493
aI0
aa(lp53
F748.43950223922729
aI0
aa(lp54
F819.80437421798706
aI0
aa(lp55
F827.03412008285522
aI0
aa(lp56
F904.49834418296814
aI0
aa(lp57
F911.21438813209534
aI0
aa(lp58
F930.63810420036316
aI0
aa(lp59
F938.38721799850464
aI0
aa(lp60
F943.68550801277161
aI0
aa(lp61
F951.50556206703186
aI0
aa(lp62
F1021.0125911235809
aI0
aa(lp63
F1026.469621181488
aI0
aa(lp64
F1063.822802066803
aI0
aa(lp65
F1071.0780959129333
aI0
aa(lp66
F1086.9674088954926
aI0
aa(lp67
F1097.078822851181
aI1
aa(lp68
F1105.4104688167572
aI1
aa(lp69
F1112.5558948516846
aI1
aa(lp70
F1119.9676246643066
aI1
aa(lp71
F1125.7291786670685
aI1
aa(lp72
F1196.1536116600037
aI1
aa(lp73
F1202.2265956401825
aI1
aa(lp74
F1229.1538865566254
aI1
aa(lp75
F1237.4117057323456
aI1
aa(lp76
F1252.7280766963959
aI1
aa(lp77
F1260.342946767807
aI1
aa(lp78
F1272.8243408203125
aI1
aa(lp79
F1284.0312249660492
aI1
aa(lp80
F1292.9496350288391
aI1
aa(lp81
F1301.7116980552673
aI1
aa(lp82
F1377.5117700099945
aI1
aa(lp83
F1383.5959279537201
aI1
aa(lp84
F1392.5287640094757
aI1
aa(lp85
F1398.3525390625
aI1
aa(lp86
F1480.5213620662689
aI1
aa(lp87
F1487.258397102356
aI1
aa(lp88
F1496.9219059944153
aI1
aa(lp89
F1505.0570709705353
aI1
aa(lp90
F1514.1486480236053
aI1
aa(lp91
F1519.2662868499756
aI1
aa(lp92
F1526.920961856842
aI1
aa(lp93
F1531.6974830627441
aI1
aa(lp94
F1540.3274819850922
aI1
aa(lp95
F1546.8341009616852
aI1
aa(lp96
F1553.0098569393158
aI1
aa(lp97
F1560.060555934906
aI1
aa(lp98
F1640.4119880199432
aI1
aa(lp99
F1649.1010999679565
aI1
aa(lp100
F1658.809818983078
aI1
aa(lp101
F1665.7666578292847
aI1
aa(lp102
F1679.976057767868
aI1
aa(lp103
F1687.5547277927399
aI1
aasS'plan'
p104
Ns.