(dp1
S'search_time'
p2
(lp3
(lp4
F8.8175280094146729
aI-2
aa(lp5
F13.958824872970581
aI-2
aa(lp6
F19.075594902038574
aI-2
aa(lp7
F23.25727105140686
aI-2
aa(lp8
F28.319133043289185
aI-2
aa(lp9
F32.888012886047363
aI-2
aa(lp10
F38.398712873458862
aI-1
aa(lp11
F42.632089853286743
aI-1
aa(lp12
F74.262735843658447
aI-1
aa(lp13
F79.139791011810303
aI-1
aa(lp14
F86.293490171432495
aI-1
aa(lp15
F90.615440130233765
aI-1
aa(lp16
F96.860099077224731
aI-1
aa(lp17
F102.23704314231873
aI-1
aa(lp18
F121.89072918891907
aI0
aa(lp19
F126.91407918930054
aI0
aa(lp20
F133.87524724006653
aI0
aa(lp21
F138.70854330062866
aI0
aa(lp22
F145.39218330383301
aI0
aa(lp23
F150.41115832328796
aI0
aa(lp24
F159.69686031341553
aI0
aa(lp25
F165.41909432411194
aI0
aa(lp26
F177.7838122844696
aI0
aa(lp27
F183.71526622772217
aI0
aa(lp28
F193.61747932434082
aI0
aa(lp29
F199.97961521148682
aI0
aa(lp30
F212.05897617340088
aI0
aa(lp31
F216.26446032524109
aI0
aa(lp32
F222.11628341674805
aI0
aa(lp33
F227.36964845657349
aI0
aa(lp34
F234.09005522727966
aI0
aa(lp35
F238.67584228515625
aI0
aa(lp36
F246.55988645553589
aI0
aa(lp37
F251.65818452835083
aI0
aa(lp38
F259.4265284538269
aI0
aa(lp39
F264.14933753013611
aI0
aa(lp40
F270.88068056106567
aI0
aa(lp41
F276.79692673683167
aI0
aa(lp42
F282.25357270240784
aI0
aa(lp43
F287.86770558357239
aI0
aa(lp44
F301.02537059783936
aI0
aa(lp45
F306.97923564910889
aI0
aa(lp46
F318.3576488494873
aI0
aa(lp47
F321.83813285827637
aI0
aa(lp48
F328.33507180213928
aI0
aa(lp49
F332.9981677532196
aI0
aa(lp50
F341.33416390419006
aI0
aa(lp51
F347.51100492477417
aI0
aa(lp52
F353.49301910400391
aI0
aa(lp53
F357.38946199417114
aI0
aa(lp54
F377.40174293518066
aI0
aa(lp55
F382.7534167766571
aI0
aa(lp56
F391.94866871833801
aI0
aa(lp57
F396.86269664764404
aI0
aa(lp58
F426.28608059883118
aI0
aa(lp59
F432.61306166648865
aI0
aa(lp60
F437.30587768554688
aI0
aa(lp61
F443.72706174850464
aI0
aa(lp62
F462.10335373878479
aI0
aa(lp63
F466.53014874458313
aI0
aa(lp64
F474.0106246471405
aI0
aa(lp65
F478.89555263519287
aI0
aa(lp66
F488.74784064292908
aI0
aa(lp67
F493.64372754096985
aI0
aa(lp68
F542.23989653587341
aI0
aa(lp69
F547.23106741905212
aI0
aa(lp70
F557.8235182762146
aI0
aa(lp71
F562.17673826217651
aI0
aa(lp72
F567.51944637298584
aI0
aa(lp73
F572.92463946342468
aI0
aa(lp74
F589.55254149436951
aI0
aa(lp75
F594.68482160568237
aI0
aa(lp76
F641.20340442657471
aI0
aa(lp77
F645.369957447052
aI0
aa(lp78
F668.85273742675781
aI0
aa(lp79
F674.99758243560791
aI0
aa(lp80
F723.37072563171387
aI0
aa(lp81
F726.98501372337341
aI0
aa(lp82
F741.81814360618591
aI0
aa(lp83
F747.57067561149597
aI0
aa(lp84
F755.80689764022827
aI0
aa(lp85
F761.71034979820251
aI0
aa(lp86
F769.1805408000946
aI0
aa(lp87
F774.89439988136292
aI0
aa(lp88
F780.41953182220459
aI0
aa(lp89
F785.16683888435364
aI0
aa(lp90
F794.44366502761841
aI0
aa(lp91
F798.54053997993469
aI0
aa(lp92
F805.69142603874207
aI0
aa(lp93
F810.88781499862671
aI0
aa(lp94
F859.26665687561035
aI0
aa(lp95
F863.42747688293457
aI0
aa(lp96
F870.5029308795929
aI0
aa(lp97
F875.12354588508606
aI0
aa(lp98
F883.25756478309631
aI0
aa(lp99
F887.23383688926697
aI0
aa(lp100
F894.60581398010254
aI0
aa(lp101
F900.88457012176514
aI0
aa(lp102
F907.20206117630005
aI0
aa(lp103
F912.25631928443909
aI0
aasS'plan'
p104
Ns.