(dp1
S'search_time'
p2
(lp3
(lp4
F12.556617021560669
aI0
aa(lp5
F16.348642826080322
aI0
aa(lp6
F26.442501783370972
aI0
aa(lp7
F34.999777793884277
aI0
aa(lp8
F39.429690837860107
aI0
aa(lp9
F43.716707944869995
aI0
aa(lp10
F49.972058773040771
aI0
aa(lp11
F54.009789943695068
aI0
aa(lp12
F76.095691919326782
aI0
aa(lp13
F82.358238935470581
aI0
aa(lp14
F90.49940013885498
aI0
aa(lp15
F96.529659032821655
aI0
aa(lp16
F113.08752703666687
aI0
aa(lp17
F116.57338094711304
aI0
aa(lp18
F124.08958697319031
aI0
aa(lp19
F128.0630989074707
aI0
aa(lp20
F132.92767190933228
aI0
aa(lp21
F137.11503100395203
aI0
aa(lp22
F224.63688802719116
aI0
aa(lp23
F240.17232489585876
aI1
aa(lp24
F264.32206392288208
aI1
aa(lp25
F270.46855878829956
aI1
aa(lp26
F278.76952576637268
aI1
aa(lp27
F284.72111582756042
aI1
aa(lp28
F369.51734566688538
aI1
aa(lp29
F373.46274971961975
aI1
aa(lp30
F378.57320070266724
aI1
aa(lp31
F383.35345673561096
aI1
aa(lp32
F400.3149938583374
aI1
aa(lp33
F404.37853693962097
aI1
aa(lp34
F408.95369505882263
aI1
aa(lp35
F413.61877298355103
aI1
aa(lp36
F425.48610186576843
aI1
aa(lp37
F429.06306481361389
aI1
aa(lp38
F438.94590783119202
aI1
aa(lp39
F446.74014687538147
aI1
aa(lp40
F461.21568489074707
aI1
aa(lp41
F466.18564486503601
aI1
aa(lp42
F508.86411881446838
aI1
aa(lp43
F514.87787270545959
aI1
aa(lp44
F523.94631361961365
aI1
aa(lp45
F527.92014646530151
aI1
aa(lp46
F534.50150847434998
aI1
aa(lp47
F538.37931847572327
aI1
aa(lp48
F544.07066440582275
aI1
aa(lp49
F548.14669346809387
aI1
aa(lp50
F560.61467957496643
aI1
aa(lp51
F564.51614475250244
aI1
aa(lp52
F645.94432783126831
aI1
aa(lp53
F649.86247181892395
aI1
aa(lp54
F663.37868690490723
aI1
aa(lp55
F667.02778887748718
aI1
aa(lp56
F681.42925882339478
aI1
aa(lp57
F685.61128187179565
aI1
aa(lp58
F770.93825793266296
aI1
aa(lp59
F775.53270602226257
aI1
aa(lp60
F780.15490698814392
aI1
aa(lp61
F784.36862683296204
aI1
aa(lp62
F795.09999489784241
aI1
aa(lp63
F799.0564968585968
aI1
aa(lp64
F805.74133396148682
aI1
aa(lp65
F809.71023678779602
aI1
aa(lp66
F854.9055609703064
aI1
aa(lp67
F865.38733005523682
aI1
aa(lp68
F870.34540915489197
aI1
aa(lp69
F874.86698007583618
aI1
aa(lp70
F937.09012627601624
aI1
aa(lp71
F945.66011333465576
aI1
aa(lp72
F1029.086754322052
aI1
aa(lp73
F1033.4675002098083
aI1
aa(lp74
F1096.6945402622223
aI1
aa(lp75
F1101.264523267746
aI1
aa(lp76
F1187.6757423877716
aI1
aa(lp77
F1194.1796295642853
aI1
aa(lp78
F1200.0906355381012
aI1
aa(lp79
F1204.9357094764709
aI1
aa(lp80
F1288.0847404003143
aI1
aa(lp81
F1294.3603813648224
aI1
aa(lp82
F1389.1599562168121
aI1
aa(lp83
F1392.7452471256256
aI1
aa(lp84
F1415.7310600280762
aI1
aa(lp85
F1421.4277610778809
aI1
aa(lp86
F1503.8882110118866
aI1
aa(lp87
F1509.3744728565216
aI1
aa(lp88
F1524.0340900421143
aI1
aa(lp89
F1527.5471131801605
aI1
aa(lp90
F1531.9416592121124
aI1
aa(lp91
F1536.5991940498352
aI1
aa(lp92
F1544.7431240081787
aI1
aa(lp93
F1556.0364508628845
aI1
aa(lp94
F1571.4814548492432
aI1
aa(lp95
F1575.1224148273468
aI1
aa(lp96
F1607.3637588024139
aI1
aa(lp97
F1611.3548336029053
aI1
aa(lp98
F1644.2331595420837
aI1
aa(lp99
F1649.72332072258
aI1
aa(lp100
F1657.6442148685455
aI1
aa(lp101
F1665.320280790329
aI1
aa(lp102
F1749.6488037109375
aI1
aa(lp103
F1754.2708337306976
aI1
aasS'plan'
p104
Ns.