(dp1
S'search_time'
p2
(lp3
(lp4
F24.292672872543335
aI-2
aa(lp5
F47.837214946746826
aI-2
aa(lp6
F62.915432929992676
aI-2
aa(lp7
F76.857588768005371
aI-2
aa(lp8
F102.90796184539795
aI-2
aa(lp9
F128.11372590065002
aI-2
aa(lp10
F145.70738577842712
aI-2
aa(lp11
F162.85999274253845
aI-2
aa(lp12
F184.18674468994141
aI-2
aa(lp13
F204.62392067909241
aI-2
aa(lp14
F230.06782984733582
aI-2
aa(lp15
F254.51990294456482
aI-2
aa(lp16
F276.0062370300293
aI-1
aa(lp17
F296.08646202087402
aI-1
aa(lp18
F314.18668603897095
aI-1
aa(lp19
F342.35130000114441
aI-1
aa(lp20
F366.93143105506897
aI-1
aa(lp21
F393.11914610862732
aI-1
aa(lp22
F416.03003716468811
aI-1
aa(lp23
F436.99412608146667
aI-1
aa(lp24
F462.40411114692688
aI-1
aa(lp25
F482.31517219543457
aI-1
aa(lp26
F502.86262607574463
aI-1
aa(lp27
F522.29814696311951
aI-1
aa(lp28
F543.27713203430176
aI-1
aa(lp29
F562.2772490978241
aI-1
aa(lp30
F579.44945621490479
aI-1
aa(lp31
F599.41707038879395
aI-1
aa(lp32
F621.72480344772339
aI-1
aa(lp33
F641.99888253211975
aI-1
aa(lp34
F669.20451545715332
aI-1
aa(lp35
F695.22875237464905
aI-1
aa(lp36
F714.98495435714722
aI0
aa(lp37
F732.13555431365967
aI0
aa(lp38
F755.67992115020752
aI0
aa(lp39
F768.81776714324951
aI0
aa(lp40
F785.56552410125732
aI0
aa(lp41
F800.3740541934967
aI0
aa(lp42
F822.21879005432129
aI0
aa(lp43
F839.55153799057007
aI0
aa(lp44
F861.5798819065094
aI0
aa(lp45
F880.43411993980408
aI0
aa(lp46
F900.2523889541626
aI0
aa(lp47
F918.35810804367065
aI0
aa(lp48
F936.90167713165283
aI0
aa(lp49
F952.67248511314392
aI0
aa(lp50
F980.80165910720825
aI0
aa(lp51
F1006.5429992675781
aI0
aa(lp52
F1020.262115240097
aI0
aa(lp53
F1035.609872341156
aI0
aa(lp54
F1059.5642673969269
aI0
aa(lp55
F1084.7139322757721
aI0
aa(lp56
F1108.0071692466736
aI0
aa(lp57
F1129.8933162689209
aI0
aa(lp58
F1151.2268981933594
aI0
aa(lp59
F1171.1258401870728
aI0
aa(lp60
F1189.7670660018921
aI0
aa(lp61
F1212.814090013504
aI0
aa(lp62
F1232.165568113327
aI0
aa(lp63
F1250.2361280918121
aI0
aa(lp64
F1273.0213370323181
aI0
aa(lp65
F1290.3299160003662
aI0
aa(lp66
F1312.5625989437103
aI0
aa(lp67
F1333.0596368312836
aI0
aa(lp68
F1349.0741498470306
aI0
aa(lp69
F1366.9620237350464
aI0
aa(lp70
F1388.8961217403412
aI0
aa(lp71
F1403.6790425777435
aI0
aa(lp72
F1427.8536505699158
aI0
aa(lp73
F1447.8293285369873
aI0
aa(lp74
F1478.5697374343872
aI0
aa(lp75
F1505.1248464584351
aI0
aa(lp76
F1530.0975275039673
aI0
aa(lp77
F1553.1308255195618
aI0
aa(lp78
F1573.4311034679413
aI0
aa(lp79
F1594.2975754737854
aI0
aa(lp80
F1610.5757443904877
aI0
aa(lp81
F1624.3297963142395
aI0
aa(lp82
F1647.0344252586365
aI0
aa(lp83
F1668.5760881900787
aI0
aa(lp84
F1691.1874551773071
aI0
aa(lp85
F1710.9761981964111
aI0
aa(lp86
F1737.8563492298126
aI0
aa(lp87
F1763.7361571788788
aI0
aa(lp88
F1788.6040012836456
aI0
aa(lp89
F1812.3548943996429
aI0
aa(lp90
F1838.1110043525696
aI0
aa(lp91
F1853.0772974491119
aI0
aa(lp92
F1876.970769405365
aI0
aa(lp93
F1903.4456942081451
aI0
aa(lp94
F1929.248829126358
aI0
aa(lp95
F1951.7820701599121
aI0
aa(lp96
F1972.0722012519836
aI0
aa(lp97
F1995.9932813644409
aI0
aa(lp98
F2018.9793424606323
aI0
aa(lp99
F2037.320353269577
aI0
aa(lp100
F2060.0194113254547
aI0
aa(lp101
F2077.7866342067719
aI0
aa(lp102
F2097.1530733108521
aI0
aa(lp103
F2118.0067703723907
aI0
aasS'plan'
p104
Ns.