(dp1
S'search_time'
p2
(lp3
(lp4
F16.345610857009888
aI-2
aa(lp5
F32.483498811721802
aI-2
aa(lp6
F49.179641962051392
aI-2
aa(lp7
F64.544406175613403
aI-2
aa(lp8
F82.038130044937134
aI-2
aa(lp9
F98.715177059173584
aI-2
aa(lp10
F125.17820906639099
aI-1
aa(lp11
F149.51845407485962
aI-1
aa(lp12
F170.02708506584167
aI-1
aa(lp13
F188.05773115158081
aI-1
aa(lp14
F205.82837605476379
aI-1
aa(lp15
F226.29384207725525
aI-1
aa(lp16
F246.88569712638855
aI-1
aa(lp17
F265.75072002410889
aI-1
aa(lp18
F282.03664708137512
aI0
aa(lp19
F293.17207813262939
aI0
aa(lp20
F315.73997521400452
aI0
aa(lp21
F341.44771003723145
aI0
aa(lp22
F354.80835604667664
aI0
aa(lp23
F372.94541311264038
aI0
aa(lp24
F399.37482714653015
aI0
aa(lp25
F421.66752409934998
aI0
aa(lp26
F440.7574200630188
aI0
aa(lp27
F460.46555519104004
aI0
aa(lp28
F482.11754322052002
aI0
aa(lp29
F498.47045135498047
aI0
aa(lp30
F510.864666223526
aI0
aa(lp31
F531.20387721061707
aI0
aa(lp32
F545.05563616752625
aI0
aa(lp33
F562.35483813285828
aI0
aa(lp34
F578.59776616096497
aI0
aa(lp35
F591.36124515533447
aI0
aa(lp36
F612.88391208648682
aI0
aa(lp37
F634.15036296844482
aI0
aa(lp38
F647.21337580680847
aI0
aa(lp39
F663.71797275543213
aI0
aa(lp40
F682.88393592834473
aI0
aa(lp41
F704.73661398887634
aI0
aa(lp42
F725.0997040271759
aI0
aa(lp43
F744.35209894180298
aI0
aa(lp44
F762.94935202598572
aI0
aa(lp45
F782.1448700428009
aI0
aa(lp46
F802.95146417617798
aI0
aa(lp47
F822.63841724395752
aI0
aa(lp48
F846.69271612167358
aI0
aa(lp49
F866.17260694503784
aI0
aa(lp50
F884.82665991783142
aI0
aa(lp51
F900.44947695732117
aI0
aa(lp52
F920.5544650554657
aI0
aa(lp53
F946.1380660533905
aI0
aa(lp54
F963.65688610076904
aI0
aa(lp55
F985.35858702659607
aI0
aa(lp56
F1001.5422880649567
aI0
aa(lp57
F1020.7574119567871
aI0
aa(lp58
F1044.1833648681641
aI0
aa(lp59
F1065.9971058368683
aI0
aa(lp60
F1084.2680168151855
aI0
aa(lp61
F1106.2152366638184
aI0
aa(lp62
F1124.2465267181396
aI0
aa(lp63
F1140.2886986732483
aI0
aa(lp64
F1160.7346615791321
aI0
aa(lp65
F1176.5914885997772
aI0
aa(lp66
F1202.6555306911469
aI0
aa(lp67
F1225.0947318077087
aI0
aa(lp68
F1240.5904927253723
aI0
aa(lp69
F1264.3301556110382
aI0
aa(lp70
F1286.5168607234955
aI0
aa(lp71
F1303.4493238925934
aI0
aa(lp72
F1324.8423318862915
aI0
aa(lp73
F1344.4289138317108
aI0
aa(lp74
F1361.2555758953094
aI0
aa(lp75
F1383.1384520530701
aI1
aa(lp76
F1412.7447171211243
aI1
aa(lp77
F1436.5538191795349
aI1
aa(lp78
F1458.3154261112213
aI1
aa(lp79
F1478.1330420970917
aI1
aa(lp80
F1520.2468953132629
aI1
aa(lp81
F1557.6632981300354
aI1
aa(lp82
F1578.431440114975
aI1
aa(lp83
F1595.337238073349
aI1
aa(lp84
F1610.195424079895
aI1
aa(lp85
F1620.7250611782074
aI1
aa(lp86
F1639.46923828125
aI1
aa(lp87
F1653.603461265564
aI1
aa(lp88
F1675.5382761955261
aI1
aa(lp89
F1691.6658191680908
aI1
aa(lp90
F1710.5850973129272
aI1
aa(lp91
F1726.0676872730255
aI1
aa(lp92
F1744.9983053207397
aI1
aa(lp93
F1765.0442543029785
aI1
aa(lp94
F1778.0715153217316
aI1
aa(lp95
F1799.400187253952
aI1
aa(lp96
F1815.7898452281952
aI1
aa(lp97
F1833.1311774253845
aI1
aa(lp98
F1848.9894154071808
aI1
aa(lp99
F1860.1463234424591
aI1
aa(lp100
F1881.8332154750824
aI1
aa(lp101
F1899.1468822956085
aI1
aa(lp102
F1921.3563604354858
aI1
aa(lp103
F1933.4997274875641
aI1
aasS'plan'
p104
Ns.