(dp1
S'search_time'
p2
(lp3
(lp4
F27.918401002883911
aI-1
aa(lp5
F51.442131042480469
aI-1
aa(lp6
F72.590091943740845
aI-1
aa(lp7
F101.62169289588928
aI-1
aa(lp8
F132.41656494140625
aI-1
aa(lp9
F156.38848280906677
aI-1
aa(lp10
F187.17078876495361
aI-1
aa(lp11
F216.9979088306427
aI-1
aa(lp12
F242.81345200538635
aI-1
aa(lp13
F266.31340217590332
aI-1
aa(lp14
F296.28532910346985
aI-1
aa(lp15
F324.03953623771667
aI-1
aa(lp16
F344.78481912612915
aI-1
aa(lp17
F368.50553512573242
aI-1
aa(lp18
F393.16008424758911
aI-1
aa(lp19
F422.83731603622437
aI-1
aa(lp20
F461.05665397644043
aI-1
aa(lp21
F483.75637602806091
aI-1
aa(lp22
F514.96168398857117
aI-1
aa(lp23
F536.72503399848938
aI-1
aa(lp24
F559.10198497772217
aI-1
aa(lp25
F579.61646389961243
aI-1
aa(lp26
F601.64625883102417
aI-1
aa(lp27
F633.09148383140564
aI-1
aa(lp28
F668.84366083145142
aI-1
aa(lp29
F687.68560481071472
aI-1
aa(lp30
F707.92835783958435
aI-1
aa(lp31
F728.62186574935913
aI-1
aa(lp32
F751.49830770492554
aI-1
aa(lp33
F769.9288215637207
aI-1
aa(lp34
F801.25655436515808
aI-1
aa(lp35
F824.35553121566772
aI-1
aa(lp36
F850.7147331237793
aI-1
aa(lp37
F883.24650192260742
aI-1
aa(lp38
F909.82903289794922
aI-1
aa(lp39
F934.99823594093323
aI-1
aa(lp40
F956.49374985694885
aI-1
aa(lp41
F976.48924279212952
aI-1
aa(lp42
F1006.9458589553833
aI-1
aa(lp43
F1019.2636940479279
aI-1
aa(lp44
F1046.510852098465
aI-1
aa(lp45
F1070.0346779823303
aI-1
aa(lp46
F1091.2900769710541
aI-1
aa(lp47
F1117.2668879032135
aI-1
aa(lp48
F1142.1586089134216
aI-1
aa(lp49
F1173.3401429653168
aI-1
aa(lp50
F1200.5246520042419
aI-1
aa(lp51
F1218.3591690063477
aI-1
aa(lp52
F1247.9610748291016
aI-1
aa(lp53
F1275.5151598453522
aI-1
aa(lp54
F1300.8749468326569
aI-1
aa(lp55
F1323.2451260089874
aI-1
aa(lp56
F1348.450413942337
aI-1
aa(lp57
F1371.3068640232086
aI-1
aa(lp58
F1399.5792491436005
aI-1
aa(lp59
F1422.6668322086334
aI-1
aa(lp60
F1447.3181703090668
aI-1
aa(lp61
F1470.7984101772308
aI-1
aa(lp62
F1503.5791022777557
aI-1
aa(lp63
F1530.4540793895721
aI-1
aa(lp64
F1556.8183925151825
aI-1
aa(lp65
F1581.6440696716309
aI-1
aa(lp66
F1609.4114587306976
aI-1
aa(lp67
F1624.0790598392487
aI-1
aa(lp68
F1647.2703948020935
aI-1
aa(lp69
F1671.8063058853149
aI-1
aa(lp70
F1696.1084008216858
aI-1
aa(lp71
F1717.170637845993
aI-1
aa(lp72
F1742.6165518760681
aI-1
aa(lp73
F1768.1657259464264
aI-1
aa(lp74
F1801.4529829025269
aI-1
aa(lp75
F1825.2879328727722
aI-1
aa(lp76
F1845.6998598575592
aI-1
aa(lp77
F1865.9804217815399
aI-1
aa(lp78
F1898.6856317520142
aI-1
aa(lp79
F1922.9493057727814
aI-1
aa(lp80
F1950.1578187942505
aI-1
aa(lp81
F1969.8943066596985
aI-1
aa(lp82
F1990.3405344486237
aI-1
aa(lp83
F2006.9727663993835
aI-1
aa(lp84
F2036.316207408905
aI-1
aa(lp85
F2064.5643832683563
aI-1
aa(lp86
F2083.6377792358398
aI-1
aa(lp87
F2103.9548261165619
aI-1
aa(lp88
F2132.5684950351715
aI-1
aa(lp89
F2155.3046128749847
aI-1
aa(lp90
F2185.9171307086945
aI-1
aa(lp91
F2214.9493796825409
aI-1
aa(lp92
F2247.0397605895996
aI-1
aa(lp93
F2272.2295095920563
aI-1
aa(lp94
F2292.2331085205078
aI-1
aa(lp95
F2316.3106875419617
aI-1
aa(lp96
F2334.9089965820312
aI-1
aa(lp97
F2358.3122985363007
aI-1
aa(lp98
F2387.3236854076385
aI-1
aa(lp99
F2406.5035994052887
aI-1
aa(lp100
F2431.1155965328217
aI-1
aa(lp101
F2456.6481106281281
aI-1
aa(lp102
F2487.6121137142181
aI-1
aa(lp103
F2518.7906515598297
aI-1
aasS'plan'
p104
Ns.