(dp1
S'search_time'
p2
(lp3
(lp4
F23.279208898544312
aI-2
aa(lp5
F45.506159782409668
aI-2
aa(lp6
F64.28884482383728
aI-1
aa(lp7
F79.110801935195923
aI-1
aa(lp8
F94.980359792709351
aI-1
aa(lp9
F115.30611062049866
aI-1
aa(lp10
F133.09022164344788
aI-1
aa(lp11
F148.42263770103455
aI-1
aa(lp12
F165.20441579818726
aI-1
aa(lp13
F180.49886989593506
aI-1
aa(lp14
F202.21413683891296
aI-1
aa(lp15
F222.32853484153748
aI-1
aa(lp16
F246.23596572875977
aI-1
aa(lp17
F268.90536379814148
aI-1
aa(lp18
F283.74579477310181
aI0
aa(lp19
F296.21492481231689
aI0
aa(lp20
F317.89925479888916
aI0
aa(lp21
F337.02115392684937
aI0
aa(lp22
F354.29147577285767
aI0
aa(lp23
F367.88915872573853
aI0
aa(lp24
F382.42935681343079
aI0
aa(lp25
F399.47762179374695
aI0
aa(lp26
F414.96003198623657
aI0
aa(lp27
F431.6560389995575
aI1
aa(lp28
F450.87737798690796
aI1
aa(lp29
F465.63011884689331
aI1
aa(lp30
F484.07612299919128
aI1
aa(lp31
F498.59139704704285
aI1
aa(lp32
F517.92626690864563
aI1
aa(lp33
F541.3969349861145
aI1
aa(lp34
F554.64794111251831
aI1
aa(lp35
F573.60438513755798
aI1
aa(lp36
F592.32589626312256
aI1
aa(lp37
F607.98947143554688
aI1
aa(lp38
F639.6253764629364
aI1
aa(lp39
F660.47778058052063
aI1
aa(lp40
F683.80982565879822
aI1
aa(lp41
F699.83719372749329
aI1
aa(lp42
F714.30767393112183
aI1
aa(lp43
F726.94535684585571
aI1
aa(lp44
F746.22302389144897
aI1
aa(lp45
F762.15540909767151
aI1
aa(lp46
F779.38225913047791
aI1
aa(lp47
F801.5127272605896
aI1
aa(lp48
F818.79289031028748
aI1
aa(lp49
F834.53627038002014
aI1
aa(lp50
F852.24639344215393
aI1
aa(lp51
F871.89122533798218
aI1
aa(lp52
F895.62734723091125
aI1
aa(lp53
F915.54871416091919
aI1
aa(lp54
F932.18925404548645
aI1
aa(lp55
F945.91154813766479
aI1
aa(lp56
F962.20893120765686
aI1
aa(lp57
F979.79503417015076
aI1
aa(lp58
F1002.823301076889
aI1
aa(lp59
F1016.8413400650024
aI1
aa(lp60
F1039.5213861465454
aI1
aa(lp61
F1060.2618851661682
aI1
aa(lp62
F1082.4781031608582
aI1
aa(lp63
F1102.9155192375183
aI1
aa(lp64
F1125.2792942523956
aI1
aa(lp65
F1141.9243392944336
aI1
aa(lp66
F1159.7142033576965
aI1
aa(lp67
F1177.1273741722107
aI1
aa(lp68
F1191.6761751174927
aI1
aa(lp69
F1207.0133571624756
aI1
aa(lp70
F1221.9946711063385
aI1
aa(lp71
F1241.9042642116547
aI1
aa(lp72
F1265.0780341625214
aI1
aa(lp73
F1285.9742321968079
aI1
aa(lp74
F1302.2175371646881
aI1
aa(lp75
F1316.9536280632019
aI1
aa(lp76
F1334.342297077179
aI1
aa(lp77
F1353.0912549495697
aI1
aa(lp78
F1370.5221681594849
aI1
aa(lp79
F1384.1261601448059
aI1
aa(lp80
F1400.0425691604614
aI1
aa(lp81
F1416.3428781032562
aI1
aa(lp82
F1436.8381292819977
aI1
aa(lp83
F1455.0130372047424
aI1
aa(lp84
F1469.2445991039276
aI1
aa(lp85
F1485.712651014328
aI1
aa(lp86
F1500.3828890323639
aI1
aa(lp87
F1511.8857669830322
aI1
aa(lp88
F1538.8064410686493
aI1
aa(lp89
F1554.7347581386566
aI1
aa(lp90
F1570.9326393604279
aI1
aa(lp91
F1590.3475344181061
aI1
aa(lp92
F1607.0999245643616
aI1
aa(lp93
F1626.3118035793304
aI1
aa(lp94
F1640.1494295597076
aI1
aa(lp95
F1651.5671226978302
aI1
aa(lp96
F1667.9778468608856
aI1
aa(lp97
F1680.9441058635712
aI1
aa(lp98
F1698.7881579399109
aI1
aa(lp99
F1716.622330904007
aI1
aa(lp100
F1738.1641719341278
aI1
aa(lp101
F1755.1827199459076
aI1
aa(lp102
F1768.1665470600128
aI1
aa(lp103
F1787.3473839759827
aI1
aasS'plan'
p104
Ns.