(dp1
S'search_time'
p2
(lp3
(lp4
F23.344341993331909
aI-2
aa(lp5
F45.268929004669189
aI-2
aa(lp6
F69.206696033477783
aI-2
aa(lp7
F91.541093111038208
aI-2
aa(lp8
F114.4961850643158
aI-2
aa(lp9
F136.01896595954895
aI-2
aa(lp10
F151.35783100128174
aI-1
aa(lp11
F164.12062001228333
aI-1
aa(lp12
F179.00409889221191
aI-1
aa(lp13
F195.74096393585205
aI-1
aa(lp14
F214.03239679336548
aI-1
aa(lp15
F230.59550786018372
aI-1
aa(lp16
F254.33130788803101
aI-1
aa(lp17
F275.16138792037964
aI-1
aa(lp18
F300.71353077888489
aI-1
aa(lp19
F320.7457857131958
aI-1
aa(lp20
F344.50097179412842
aI0
aa(lp21
F366.12611365318298
aI0
aa(lp22
F389.86616373062134
aI0
aa(lp23
F410.61231756210327
aI0
aa(lp24
F431.85636258125305
aI0
aa(lp25
F455.81483364105225
aI0
aa(lp26
F472.75231170654297
aI0
aa(lp27
F486.91571688652039
aI0
aa(lp28
F517.04412579536438
aI0
aa(lp29
F544.03715586662292
aI0
aa(lp30
F567.4218578338623
aI0
aa(lp31
F586.53024983406067
aI0
aa(lp32
F607.21688771247864
aI0
aa(lp33
F621.68435668945312
aI0
aa(lp34
F642.33461451530457
aI0
aa(lp35
F661.27371764183044
aI0
aa(lp36
F678.05606174468994
aI0
aa(lp37
F695.13462591171265
aI0
aa(lp38
F718.79661393165588
aI0
aa(lp39
F744.7576208114624
aI0
aa(lp40
F773.02986001968384
aI0
aa(lp41
F797.67761397361755
aI0
aa(lp42
F819.39808487892151
aI0
aa(lp43
F836.25027775764465
aI0
aa(lp44
F857.06821274757385
aI0
aa(lp45
F880.72376465797424
aI0
aa(lp46
F900.53572463989258
aI0
aa(lp47
F917.84804773330688
aI0
aa(lp48
F932.23201370239258
aI0
aa(lp49
F945.1323766708374
aI0
aa(lp50
F965.58045673370361
aI0
aa(lp51
F985.35837483406067
aI0
aa(lp52
F1009.3365259170532
aI0
aa(lp53
F1032.9486439228058
aI0
aa(lp54
F1052.1860218048096
aI0
aa(lp55
F1069.3254137039185
aI0
aa(lp56
F1096.4661507606506
aI0
aa(lp57
F1119.1341888904572
aI0
aa(lp58
F1142.0513887405396
aI0
aa(lp59
F1158.3833775520325
aI0
aa(lp60
F1180.7760286331177
aI1
aa(lp61
F1199.842761516571
aI1
aa(lp62
F1214.3360154628754
aI1
aa(lp63
F1236.8264865875244
aI1
aa(lp64
F1257.6243135929108
aI1
aa(lp65
F1272.3120884895325
aI1
aa(lp66
F1292.8185105323792
aI1
aa(lp67
F1318.8676114082336
aI1
aa(lp68
F1335.4302666187286
aI1
aa(lp69
F1363.2922825813293
aI1
aa(lp70
F1384.675511598587
aI1
aa(lp71
F1404.3925757408142
aI1
aa(lp72
F1422.2158677577972
aI1
aa(lp73
F1444.1992475986481
aI1
aa(lp74
F1468.3345675468445
aI1
aa(lp75
F1485.2614154815674
aI1
aa(lp76
F1511.1946473121643
aI1
aa(lp77
F1526.9592981338501
aI1
aa(lp78
F1548.8438670635223
aI1
aa(lp79
F1571.4384689331055
aI1
aa(lp80
F1587.6429040431976
aI1
aa(lp81
F1613.5419001579285
aI1
aa(lp82
F1627.2110202312469
aI1
aa(lp83
F1644.7961511611938
aI1
aa(lp84
F1668.5201480388641
aI1
aa(lp85
F1693.4891889095306
aI1
aa(lp86
F1720.0727078914642
aI1
aa(lp87
F1741.1786170005798
aI1
aa(lp88
F1760.9765088558197
aI1
aa(lp89
F1779.8815498352051
aI1
aa(lp90
F1801.8459007740021
aI1
aa(lp91
F1832.5363178253174
aI1
aa(lp92
F1859.3232128620148
aI1
aa(lp93
F1888.9892659187317
aI1
aa(lp94
F1903.6000227928162
aI1
aa(lp95
F1916.4215657711029
aI1
aa(lp96
F1937.5175697803497
aI1
aa(lp97
F1956.7399418354034
aI1
aa(lp98
F1978.0211777687073
aI1
aa(lp99
F2000.8540596961975
aI1
aa(lp100
F2019.3799166679382
aI1
aa(lp101
F2036.7884566783905
aI1
aa(lp102
F2051.9888796806335
aI1
aa(lp103
F2065.8822658061981
aI1
aasS'plan'
p104
Ns.