(dp1
S'search_time'
p2
(lp3
(lp4
F14.680796146392822
aI-2
aa(lp5
F28.599485158920288
aI-2
aa(lp6
F56.521841049194336
aI0
aa(lp7
F82.643310070037842
aI0
aa(lp8
F99.20403528213501
aI0
aa(lp9
F112.85295224189758
aI0
aa(lp10
F132.8601222038269
aI0
aa(lp11
F157.31919312477112
aI0
aa(lp12
F175.36335015296936
aI0
aa(lp13
F193.85208010673523
aI0
aa(lp14
F209.49698805809021
aI0
aa(lp15
F228.17628693580627
aI0
aa(lp16
F250.5113570690155
aI0
aa(lp17
F275.79307103157043
aI0
aa(lp18
F293.63923287391663
aI0
aa(lp19
F313.09217977523804
aI0
aa(lp20
F340.45394587516785
aI0
aa(lp21
F356.35890078544617
aI0
aa(lp22
F374.36474180221558
aI0
aa(lp23
F390.99782180786133
aI0
aa(lp24
F416.84930300712585
aI0
aa(lp25
F440.97043395042419
aI0
aa(lp26
F460.23663783073425
aI0
aa(lp27
F476.93649768829346
aI0
aa(lp28
F495.61664581298828
aI0
aa(lp29
F520.13953065872192
aI0
aa(lp30
F543.3644106388092
aI0
aa(lp31
F565.78870463371277
aI0
aa(lp32
F583.37907361984253
aI0
aa(lp33
F598.94625973701477
aI0
aa(lp34
F623.85755372047424
aI0
aa(lp35
F639.64963483810425
aI0
aa(lp36
F668.09793186187744
aI0
aa(lp37
F684.48714470863342
aI0
aa(lp38
F711.79157972335815
aI0
aa(lp39
F738.00422263145447
aI0
aa(lp40
F756.6209876537323
aI0
aa(lp41
F784.15674161911011
aI0
aa(lp42
F814.52928757667542
aI0
aa(lp43
F843.85326266288757
aI0
aa(lp44
F873.89673066139221
aI0
aa(lp45
F901.67898559570312
aI0
aa(lp46
F931.19217848777771
aI0
aa(lp47
F949.04549050331116
aI0
aa(lp48
F964.6671404838562
aI0
aa(lp49
F979.66646242141724
aI0
aa(lp50
F998.49341750144958
aI0
aa(lp51
F1020.3513765335083
aI0
aa(lp52
F1034.9455254077911
aI0
aa(lp53
F1046.7176566123962
aI0
aa(lp54
F1076.7691807746887
aI0
aa(lp55
F1091.7411367893219
aI1
aa(lp56
F1107.7676858901978
aI1
aa(lp57
F1120.433525800705
aI1
aa(lp58
F1141.2151896953583
aI1
aa(lp59
F1158.512761592865
aI1
aa(lp60
F1185.2623505592346
aI1
aa(lp61
F1200.8707075119019
aI1
aa(lp62
F1218.5571415424347
aI1
aa(lp63
F1234.1252086162567
aI1
aa(lp64
F1252.1291587352753
aI1
aa(lp65
F1269.2633078098297
aI1
aa(lp66
F1285.5400388240814
aI1
aa(lp67
F1302.1027739048004
aI1
aa(lp68
F1319.7444009780884
aI1
aa(lp69
F1334.7011818885803
aI1
aa(lp70
F1363.1610388755798
aI1
aa(lp71
F1390.0187528133392
aI1
aa(lp72
F1414.6658699512482
aI1
aa(lp73
F1435.4360530376434
aI1
aa(lp74
F1451.1314949989319
aI1
aa(lp75
F1465.1236970424652
aI1
aa(lp76
F1483.9488131999969
aI1
aa(lp77
F1506.4965012073517
aI1
aa(lp78
F1526.687251329422
aI1
aa(lp79
F1546.1579763889313
aI1
aa(lp80
F1567.9268915653229
aI1
aa(lp81
F1585.7508544921875
aI1
aa(lp82
F1601.6791944503784
aI1
aa(lp83
F1618.1048793792725
aI1
aa(lp84
F1645.873583316803
aI1
aa(lp85
F1670.9616103172302
aI1
aa(lp86
F1690.2478954792023
aI1
aa(lp87
F1714.3894145488739
aI1
aa(lp88
F1737.6039085388184
aI1
aa(lp89
F1760.2137455940247
aI1
aa(lp90
F1776.8738567829132
aI1
aa(lp91
F1800.9352748394012
aI1
aa(lp92
F1820.1009798049927
aI1
aa(lp93
F1840.5721497535706
aI1
aa(lp94
F1867.5669169425964
aI1
aa(lp95
F1882.8638858795166
aI1
aa(lp96
F1904.7548568248749
aI1
aa(lp97
F1930.2297756671906
aI1
aa(lp98
F1946.8620285987854
aI1
aa(lp99
F1976.1522777080536
aI1
aa(lp100
F2002.4211666584015
aI1
aa(lp101
F2022.5408976078033
aI1
aa(lp102
F2044.7850384712219
aI1
aa(lp103
F2062.7312805652618
aI1
aasS'plan'
p104
Ns.