(dp1
S'search_time'
p2
(lp3
(lp4
F18.66558313369751
aI-1
aa(lp5
F35.877606153488159
aI-1
aa(lp6
F53.345080137252808
aI-1
aa(lp7
F66.434283018112183
aI-1
aa(lp8
F87.235394954681396
aI-1
aa(lp9
F106.43961691856384
aI-1
aa(lp10
F126.42821383476257
aI-1
aa(lp11
F146.03784990310669
aI-1
aa(lp12
F172.93593597412109
aI-1
aa(lp13
F197.09195303916931
aI-1
aa(lp14
F213.91587400436401
aI-1
aa(lp15
F228.77364587783813
aI-1
aa(lp16
F249.66505694389343
aI-1
aa(lp17
F268.846440076828
aI-1
aa(lp18
F300.57143115997314
aI-1
aa(lp19
F330.52567338943481
aI-1
aa(lp20
F361.05952954292297
aI-1
aa(lp21
F396.0468385219574
aI1
aa(lp22
F415.88300156593323
aI1
aa(lp23
F432.6670286655426
aI1
aa(lp24
F450.63781952857971
aI1
aa(lp25
F465.09111571311951
aI1
aa(lp26
F484.51231956481934
aI1
aa(lp27
F501.03255558013916
aI1
aa(lp28
F520.62124180793762
aI1
aa(lp29
F539.02873587608337
aI1
aa(lp30
F554.09619688987732
aI1
aa(lp31
F578.49947881698608
aI1
aa(lp32
F609.78958678245544
aI1
aa(lp33
F623.96392774581909
aI1
aa(lp34
F642.47724580764771
aI1
aa(lp35
F664.18772387504578
aI1
aa(lp36
F679.64664793014526
aI1
aa(lp37
F692.08326482772827
aI1
aa(lp38
F710.27253484725952
aI1
aa(lp39
F732.09786796569824
aI1
aa(lp40
F754.4006040096283
aI1
aa(lp41
F774.16336393356323
aI1
aa(lp42
F793.93955302238464
aI1
aa(lp43
F815.0122709274292
aI1
aa(lp44
F828.9009268283844
aI1
aa(lp45
F840.32156777381897
aI1
aa(lp46
F859.97237682342529
aI1
aa(lp47
F878.01581692695618
aI1
aa(lp48
F897.45874094963074
aI1
aa(lp49
F915.81461095809937
aI1
aa(lp50
F946.65424203872681
aI1
aa(lp51
F963.59852695465088
aI1
aa(lp52
F982.34073805809021
aI1
aa(lp53
F1000.3341150283813
aI1
aa(lp54
F1026.9799430370331
aI1
aa(lp55
F1039.0749001502991
aI1
aa(lp56
F1066.8100862503052
aI1
aa(lp57
F1083.2787163257599
aI1
aa(lp58
F1105.9414103031158
aI1
aa(lp59
F1124.2716164588928
aI1
aa(lp60
F1145.627922296524
aI1
aa(lp61
F1163.3135311603546
aI1
aa(lp62
F1182.7799661159515
aI1
aa(lp63
F1209.2132251262665
aI1
aa(lp64
F1247.3645191192627
aI1
aa(lp65
F1262.988382101059
aI1
aa(lp66
F1303.0598540306091
aI1
aa(lp67
F1320.2787258625031
aI1
aa(lp68
F1335.0057508945465
aI1
aa(lp69
F1347.0222599506378
aI1
aa(lp70
F1364.2834389209747
aI1
aa(lp71
F1376.1446218490601
aI1
aa(lp72
F1404.3945369720459
aI1
aa(lp73
F1431.067437171936
aI1
aa(lp74
F1456.3846681118011
aI1
aa(lp75
F1475.4729020595551
aI1
aa(lp76
F1498.3193380832672
aI1
aa(lp77
F1512.9290010929108
aI1
aa(lp78
F1533.6460671424866
aI1
aa(lp79
F1550.9191491603851
aI1
aa(lp80
F1563.1941530704498
aI1
aa(lp81
F1577.7604269981384
aI1
aa(lp82
F1600.0030488967896
aI1
aa(lp83
F1620.7989099025726
aI1
aa(lp84
F1639.4850738048553
aI1
aa(lp85
F1660.6827189922333
aI1
aa(lp86
F1687.1725189685822
aI1
aa(lp87
F1708.7227139472961
aI1
aa(lp88
F1728.4865570068359
aI1
aa(lp89
F1752.0780320167542
aI1
aa(lp90
F1781.872053861618
aI1
aa(lp91
F1793.5152857303619
aI1
aa(lp92
F1812.9768648147583
aI1
aa(lp93
F1828.852855682373
aI1
aa(lp94
F1850.5181405544281
aI1
aa(lp95
F1868.9393465518951
aI1
aa(lp96
F1895.6387674808502
aI1
aa(lp97
F1919.5062074661255
aI1
aa(lp98
F1938.904723405838
aI1
aa(lp99
F1950.2090513706207
aI1
aa(lp100
F1973.852290391922
aI1
aa(lp101
F1988.6578893661499
aI1
aa(lp102
F2009.395444393158
aI1
aa(lp103
F2033.6550562381744
aI1
aasS'plan'
p104
Ns.