(dp1
S'search_time'
p2
(lp3
(lp4
F24.098160028457642
aI-2
aa(lp5
F45.823385238647461
aI-2
aa(lp6
F78.251175165176392
aI-1
aa(lp7
F106.61669516563416
aI-1
aa(lp8
F123.17220115661621
aI-1
aa(lp9
F145.73170495033264
aI-1
aa(lp10
F172.25192403793335
aI-1
aa(lp11
F196.91064095497131
aI-1
aa(lp12
F215.24479484558105
aI-1
aa(lp13
F234.17339563369751
aI0
aa(lp14
F258.58468651771545
aI0
aa(lp15
F274.84584259986877
aI0
aa(lp16
F304.59010672569275
aI0
aa(lp17
F332.05897974967957
aI0
aa(lp18
F350.56311678886414
aI0
aa(lp19
F371.26248383522034
aI0
aa(lp20
F389.46597981452942
aI0
aa(lp21
F408.73778176307678
aI0
aa(lp22
F428.32685589790344
aI0
aa(lp23
F450.61421799659729
aI0
aa(lp24
F466.55802512168884
aI0
aa(lp25
F484.34758806228638
aI0
aa(lp26
F506.00608205795288
aI0
aa(lp27
F523.16085124015808
aI0
aa(lp28
F542.87777018547058
aI0
aa(lp29
F561.01561212539673
aI0
aa(lp30
F579.0986590385437
aI0
aa(lp31
F599.71261596679688
aI0
aa(lp32
F618.29645490646362
aI0
aa(lp33
F636.00867605209351
aI0
aa(lp34
F651.44389009475708
aI0
aa(lp35
F665.07526612281799
aI0
aa(lp36
F690.63369631767273
aI0
aa(lp37
F715.14219427108765
aI0
aa(lp38
F737.52640128135681
aI0
aa(lp39
F764.38010239601135
aI0
aa(lp40
F790.76280236244202
aI0
aa(lp41
F815.56411528587341
aI0
aa(lp42
F833.68958830833435
aI0
aa(lp43
F854.1117582321167
aI0
aa(lp44
F882.90034914016724
aI0
aa(lp45
F910.2184681892395
aI0
aa(lp46
F936.0324113368988
aI0
aa(lp47
F954.089768409729
aI0
aa(lp48
F971.09031939506531
aI0
aa(lp49
F987.41244840621948
aI0
aa(lp50
F1015.1988272666931
aI0
aa(lp51
F1040.2105803489685
aI0
aa(lp52
F1057.4229323863983
aI0
aa(lp53
F1076.2307665348053
aI0
aa(lp54
F1097.3562095165253
aI0
aa(lp55
F1117.2106385231018
aI0
aa(lp56
F1136.4000535011292
aI0
aa(lp57
F1153.880583524704
aI0
aa(lp58
F1180.1007916927338
aI0
aa(lp59
F1196.6393647193909
aI0
aa(lp60
F1214.0568928718567
aI0
aa(lp61
F1231.1576039791107
aI0
aa(lp62
F1246.2873220443726
aI0
aa(lp63
F1265.7182221412659
aI0
aa(lp64
F1284.9386270046234
aI0
aa(lp65
F1299.9112329483032
aI0
aa(lp66
F1321.6412370204926
aI0
aa(lp67
F1342.846419095993
aI0
aa(lp68
F1367.0829560756683
aI0
aa(lp69
F1389.7168531417847
aI0
aa(lp70
F1411.2434220314026
aI0
aa(lp71
F1428.8223328590393
aI0
aa(lp72
F1442.1557779312134
aI0
aa(lp73
F1465.6004509925842
aI0
aa(lp74
F1493.9075059890747
aI0
aa(lp75
F1516.6440010070801
aI0
aa(lp76
F1537.8491811752319
aI0
aa(lp77
F1558.9365723133087
aI0
aa(lp78
F1584.4612963199615
aI0
aa(lp79
F1603.2611663341522
aI0
aa(lp80
F1618.1140234470367
aI0
aa(lp81
F1642.3571336269379
aI0
aa(lp82
F1673.5264406204224
aI0
aa(lp83
F1702.0443816184998
aI0
aa(lp84
F1731.0316755771637
aI0
aa(lp85
F1754.2413115501404
aI0
aa(lp86
F1777.8972454071045
aI0
aa(lp87
F1799.8657023906708
aI0
aa(lp88
F1821.2177872657776
aI0
aa(lp89
F1838.7395124435425
aI0
aa(lp90
F1857.7383453845978
aI0
aa(lp91
F1884.7618093490601
aI0
aa(lp92
F1898.1498222351074
aI0
aa(lp93
F1910.3877623081207
aI0
aa(lp94
F1929.3805522918701
aI0
aa(lp95
F1947.2543642520905
aI0
aa(lp96
F1961.7467842102051
aI0
aa(lp97
F1979.4048023223877
aI0
aa(lp98
F1996.5779173374176
aI0
aa(lp99
F2016.0354783535004
aI0
aa(lp100
F2034.9482574462891
aI0
aa(lp101
F2051.6002495288849
aI0
aa(lp102
F2076.208069562912
aI0
aa(lp103
F2093.0324234962463
aI0
aasS'plan'
p104
Ns.