(dp1
S'search_time'
p2
(lp3
(lp4
F18.416167020797729
aI-2
aa(lp5
F35.938677072525024
aI-2
aa(lp6
F56.748028039932251
aI-1
aa(lp7
F75.390485048294067
aI-1
aa(lp8
F95.704153060913086
aI-1
aa(lp9
F118.17757105827332
aI-1
aa(lp10
F134.19365501403809
aI-1
aa(lp11
F155.4548180103302
aI-1
aa(lp12
F168.26263213157654
aI-1
aa(lp13
F188.93307495117188
aI-1
aa(lp14
F203.65118980407715
aI-1
aa(lp15
F217.38566565513611
aI-1
aa(lp16
F233.37635278701782
aI-1
aa(lp17
F250.93860268592834
aI0
aa(lp18
F268.77681875228882
aI0
aa(lp19
F284.67725682258606
aI0
aa(lp20
F309.27948594093323
aI1
aa(lp21
F330.63586688041687
aI1
aa(lp22
F347.49366283416748
aI1
aa(lp23
F368.67049169540405
aI1
aa(lp24
F387.50915670394897
aI1
aa(lp25
F405.11380386352539
aI1
aa(lp26
F427.26164269447327
aI1
aa(lp27
F448.20803284645081
aI1
aa(lp28
F469.31701993942261
aI1
aa(lp29
F483.2752149105072
aI1
aa(lp30
F501.96047377586365
aI1
aa(lp31
F526.99856877326965
aI1
aa(lp32
F542.28545665740967
aI1
aa(lp33
F555.54004073143005
aI1
aa(lp34
F568.14601993560791
aI1
aa(lp35
F589.90496587753296
aI1
aa(lp36
F607.8676290512085
aI1
aa(lp37
F624.15276908874512
aI1
aa(lp38
F640.41855502128601
aI1
aa(lp39
F655.64232897758484
aI1
aa(lp40
F674.19400119781494
aI1
aa(lp41
F692.4056670665741
aI1
aa(lp42
F705.74775004386902
aI1
aa(lp43
F728.0053539276123
aI1
aa(lp44
F741.48881387710571
aI1
aa(lp45
F762.54412984848022
aI1
aa(lp46
F778.48069381713867
aI1
aa(lp47
F795.05485677719116
aI1
aa(lp48
F815.43896079063416
aI1
aa(lp49
F834.96018290519714
aI1
aa(lp50
F849.14664387702942
aI1
aa(lp51
F864.46521472930908
aI1
aa(lp52
F883.56242871284485
aI1
aa(lp53
F902.88738560676575
aI1
aa(lp54
F919.97146654129028
aI1
aa(lp55
F938.64126968383789
aI1
aa(lp56
F952.49486970901489
aI1
aa(lp57
F977.40055060386658
aI1
aa(lp58
F995.15181756019592
aI1
aa(lp59
F1007.8042833805084
aI1
aa(lp60
F1023.4114654064178
aI1
aa(lp61
F1043.3784084320068
aI1
aa(lp62
F1065.5125784873962
aI1
aa(lp63
F1084.5089735984802
aI1
aa(lp64
F1098.817964553833
aI1
aa(lp65
F1112.7758104801178
aI1
aa(lp66
F1130.731100320816
aI1
aa(lp67
F1143.0417613983154
aI1
aa(lp68
F1159.0075914859772
aI1
aa(lp69
F1171.0894033908844
aI1
aa(lp70
F1194.4683945178986
aI1
aa(lp71
F1213.2841985225677
aI1
aa(lp72
F1227.3983285427094
aI1
aa(lp73
F1242.9313526153564
aI1
aa(lp74
F1254.1863706111908
aI1
aa(lp75
F1272.528680562973
aI1
aa(lp76
F1294.2947297096252
aI1
aa(lp77
F1313.4380187988281
aI1
aa(lp78
F1330.6139469146729
aI1
aa(lp79
F1345.8143618106842
aI1
aa(lp80
F1359.9340777397156
aI1
aa(lp81
F1377.2223355770111
aI1
aa(lp82
F1396.9233934879303
aI1
aa(lp83
F1419.2696335315704
aI1
aa(lp84
F1439.3756785392761
aI1
aa(lp85
F1454.6188585758209
aI1
aa(lp86
F1477.8030207157135
aI1
aa(lp87
F1499.1305656433105
aI1
aa(lp88
F1519.6377384662628
aI1
aa(lp89
F1539.1490504741669
aI1
aa(lp90
F1557.8461575508118
aI1
aa(lp91
F1576.5514454841614
aI1
aa(lp92
F1597.2788345813751
aI1
aa(lp93
F1613.3165214061737
aI1
aa(lp94
F1628.8397974967957
aI1
aa(lp95
F1651.1666924953461
aI1
aa(lp96
F1673.6573615074158
aI1
aa(lp97
F1691.2413663864136
aI1
aa(lp98
F1711.3824484348297
aI1
aa(lp99
F1730.3355724811554
aI1
aa(lp100
F1745.9956295490265
aI1
aa(lp101
F1760.2186515331268
aI1
aa(lp102
F1782.1188826560974
aI1
aa(lp103
F1801.9891607761383
aI1
aasS'plan'
p104
Ns.