(dp1
S'search_time'
p2
(lp3
(lp4
F18.142876148223877
aI-2
aa(lp5
F35.00365424156189
aI-2
aa(lp6
F49.638333082199097
aI-2
aa(lp7
F62.988599061965942
aI-2
aa(lp8
F88.641074180603027
aI-2
aa(lp9
F113.33331608772278
aI-2
aa(lp10
F135.67438626289368
aI-1
aa(lp11
F156.50517439842224
aI-1
aa(lp12
F183.55200219154358
aI-1
aa(lp13
F208.39843916893005
aI-1
aa(lp14
F232.76434898376465
aI-1
aa(lp15
F247.8730149269104
aI-1
aa(lp16
F270.40571308135986
aI-1
aa(lp17
F292.41093802452087
aI-1
aa(lp18
F311.78881216049194
aI-1
aa(lp19
F329.29491424560547
aI-1
aa(lp20
F350.76557016372681
aI-1
aa(lp21
F367.46181917190552
aI-1
aa(lp22
F383.58726119995117
aI-1
aa(lp23
F398.60830426216125
aI-1
aa(lp24
F414.86964416503906
aI-1
aa(lp25
F440.65709233283997
aI-1
aa(lp26
F465.68907427787781
aI-1
aa(lp27
F481.35232925415039
aI-1
aa(lp28
F501.59024119377136
aI-1
aa(lp29
F520.36726212501526
aI-1
aa(lp30
F539.39952492713928
aI-1
aa(lp31
F564.50815606117249
aI-1
aa(lp32
F582.4943540096283
aI-1
aa(lp33
F598.15586113929749
aI-1
aa(lp34
F625.164705991745
aI-1
aa(lp35
F649.32856106758118
aI0
aa(lp36
F664.32607507705688
aI0
aa(lp37
F677.20915603637695
aI0
aa(lp38
F694.11518287658691
aI0
aa(lp39
F711.78654074668884
aI0
aa(lp40
F726.14090871810913
aI0
aa(lp41
F751.07430481910706
aI0
aa(lp42
F776.54155778884888
aI0
aa(lp43
F800.49605178833008
aI0
aa(lp44
F818.19219994544983
aI0
aa(lp45
F834.81655597686768
aI0
aa(lp46
F858.88036608695984
aI0
aa(lp47
F883.74131798744202
aI0
aa(lp48
F904.36662077903748
aI0
aa(lp49
F923.76170682907104
aI0
aa(lp50
F940.27725481987
aI0
aa(lp51
F958.72738981246948
aI0
aa(lp52
F976.98859977722168
aI0
aa(lp53
F999.76285886764526
aI0
aa(lp54
F1028.3227808475494
aI0
aa(lp55
F1051.5860688686371
aI0
aa(lp56
F1067.5606560707092
aI0
aa(lp57
F1095.2154979705811
aI0
aa(lp58
F1121.7370810508728
aI0
aa(lp59
F1146.6995711326599
aI0
aa(lp60
F1173.3743669986725
aI0
aa(lp61
F1193.3006660938263
aI0
aa(lp62
F1207.6429450511932
aI0
aa(lp63
F1220.8834011554718
aI0
aa(lp64
F1243.8599371910095
aI0
aa(lp65
F1265.3031332492828
aI0
aa(lp66
F1284.7807950973511
aI0
aa(lp67
F1308.8970680236816
aI0
aa(lp68
F1326.5277981758118
aI0
aa(lp69
F1342.0453250408173
aI0
aa(lp70
F1365.2625689506531
aI0
aa(lp71
F1386.9618849754333
aI0
aa(lp72
F1401.8896498680115
aI0
aa(lp73
F1418.0822536945343
aI0
aa(lp74
F1442.8142898082733
aI0
aa(lp75
F1468.7892088890076
aI0
aa(lp76
F1494.0605759620667
aI0
aa(lp77
F1517.8257389068604
aI0
aa(lp78
F1544.6630439758301
aI0
aa(lp79
F1569.7267680168152
aI0
aa(lp80
F1598.9415910243988
aI0
aa(lp81
F1627.020406961441
aI0
aa(lp82
F1655.8364248275757
aI0
aa(lp83
F1682.5051877498627
aI0
aa(lp84
F1695.8453567028046
aI0
aa(lp85
F1717.5642018318176
aI0
aa(lp86
F1741.5553078651428
aI0
aa(lp87
F1760.3244469165802
aI0
aa(lp88
F1785.4318399429321
aI0
aa(lp89
F1803.9102509021759
aI0
aa(lp90
F1819.7519779205322
aI0
aa(lp91
F1839.856595993042
aI0
aa(lp92
F1864.2712640762329
aI0
aa(lp93
F1885.8537480831146
aI0
aa(lp94
F1903.0643751621246
aI0
aa(lp95
F1925.7773680686951
aI0
aa(lp96
F1944.6833031177521
aI0
aa(lp97
F1968.0670449733734
aI0
aa(lp98
F1987.1235988140106
aI0
aa(lp99
F2010.6572577953339
aI0
aa(lp100
F2033.122401714325
aI0
aa(lp101
F2048.573442697525
aI0
aa(lp102
F2065.7409427165985
aI0
aa(lp103
F2080.9361627101898
aI0
aasS'plan'
p104
Ns.