(dp1
S'search_time'
p2
(lp3
(lp4
F26.841611862182617
aI-1
aa(lp5
F52.119419813156128
aI-1
aa(lp6
F73.045610666275024
aI-1
aa(lp7
F95.00604772567749
aI1
aa(lp8
F115.67154049873352
aI1
aa(lp9
F133.44205856323242
aI1
aa(lp10
F154.29542756080627
aI1
aa(lp11
F177.92503547668457
aI1
aa(lp12
F194.13173747062683
aI1
aa(lp13
F210.77993750572205
aI1
aa(lp14
F231.71365761756897
aI1
aa(lp15
F255.43078780174255
aI1
aa(lp16
F272.61826086044312
aI1
aa(lp17
F286.20600295066833
aI1
aa(lp18
F309.94319486618042
aI1
aa(lp19
F329.23906373977661
aI1
aa(lp20
F356.81328392028809
aI1
aa(lp21
F374.70317196846008
aI1
aa(lp22
F401.11878490447998
aI1
aa(lp23
F419.45164394378662
aI1
aa(lp24
F444.08325505256653
aI1
aa(lp25
F464.29420900344849
aI1
aa(lp26
F484.89387989044189
aI1
aa(lp27
F508.45707178115845
aI1
aa(lp28
F528.85274863243103
aI1
aa(lp29
F543.00375652313232
aI1
aa(lp30
F568.71083545684814
aI1
aa(lp31
F589.14784336090088
aI1
aa(lp32
F610.54627847671509
aI1
aa(lp33
F632.55606842041016
aI1
aa(lp34
F646.96169543266296
aI1
aa(lp35
F667.24283647537231
aI1
aa(lp36
F686.84816336631775
aI1
aa(lp37
F705.9654324054718
aI1
aa(lp38
F728.56143736839294
aI1
aa(lp39
F747.63831520080566
aI1
aa(lp40
F783.99010801315308
aI1
aa(lp41
F817.9414370059967
aI1
aa(lp42
F835.83748698234558
aI1
aa(lp43
F850.1105489730835
aI1
aa(lp44
F877.06026697158813
aI1
aa(lp45
F898.20531296730042
aI1
aa(lp46
F914.61442494392395
aI1
aa(lp47
F942.63526105880737
aI1
aa(lp48
F967.51971912384033
aI1
aa(lp49
F990.20001697540283
aI1
aa(lp50
F1016.6233069896698
aI1
aa(lp51
F1042.6511390209198
aI1
aa(lp52
F1061.6071801185608
aI1
aa(lp53
F1100.2837250232697
aI1
aa(lp54
F1123.1092100143433
aI1
aa(lp55
F1149.1622760295868
aI1
aa(lp56
F1167.8688309192657
aI1
aa(lp57
F1183.9908640384674
aI1
aa(lp58
F1205.9331531524658
aI1
aa(lp59
F1224.0467412471771
aI1
aa(lp60
F1245.7145051956177
aI1
aa(lp61
F1265.4419221878052
aI1
aa(lp62
F1293.0158052444458
aI1
aa(lp63
F1317.8863112926483
aI1
aa(lp64
F1332.6953930854797
aI1
aa(lp65
F1345.9271311759949
aI1
aa(lp66
F1364.1219382286072
aI1
aa(lp67
F1383.9735131263733
aI1
aa(lp68
F1405.070818901062
aI1
aa(lp69
F1422.9546988010406
aI1
aa(lp70
F1445.1067757606506
aI1
aa(lp71
F1461.4829676151276
aI1
aa(lp72
F1483.3674128055573
aI1
aa(lp73
F1507.9996857643127
aI1
aa(lp74
F1527.0905547142029
aI1
aa(lp75
F1542.5582187175751
aI1
aa(lp76
F1565.8232886791229
aI1
aa(lp77
F1585.9778635501862
aI1
aa(lp78
F1601.0132346153259
aI1
aa(lp79
F1619.3702516555786
aI1
aa(lp80
F1641.9775817394257
aI1
aa(lp81
F1661.9258875846863
aI1
aa(lp82
F1682.2804465293884
aI1
aa(lp83
F1701.7187385559082
aI1
aa(lp84
F1720.2641017436981
aI1
aa(lp85
F1738.5189456939697
aI1
aa(lp86
F1756.1147878170013
aI1
aa(lp87
F1771.337299823761
aI1
aa(lp88
F1793.0026369094849
aI1
aa(lp89
F1815.5138299465179
aI1
aa(lp90
F1840.3770878314972
aI1
aa(lp91
F1856.9314708709717
aI1
aa(lp92
F1873.6288340091705
aI1
aa(lp93
F1891.4467730522156
aI1
aa(lp94
F1913.140013217926
aI1
aa(lp95
F1933.1368193626404
aI1
aa(lp96
F1948.1037273406982
aI1
aa(lp97
F1968.1011703014374
aI1
aa(lp98
F1988.0954563617706
aI1
aa(lp99
F2009.7487511634827
aI1
aa(lp100
F2026.8915090560913
aI1
aa(lp101
F2046.3207409381866
aI1
aa(lp102
F2068.0536949634552
aI1
aa(lp103
F2088.4849879741669
aI1
aasS'plan'
p104
Ns.