(dp1
S'search_time'
p2
(lp3
(lp4
F17.884773015975952
aI-2
aa(lp5
F33.646462202072144
aI-2
aa(lp6
F52.339927196502686
aI-2
aa(lp7
F69.91975736618042
aI-2
aa(lp8
F83.586281299591064
aI-2
aa(lp9
F96.539661407470703
aI-2
aa(lp10
F113.01813840866089
aI-1
aa(lp11
F128.69785237312317
aI-1
aa(lp12
F147.23057436943054
aI-1
aa(lp13
F168.02885627746582
aI-1
aa(lp14
F183.60605335235596
aI-1
aa(lp15
F203.08590626716614
aI-1
aa(lp16
F221.80992031097412
aI0
aa(lp17
F235.42210340499878
aI0
aa(lp18
F250.48786640167236
aI0
aa(lp19
F274.75790739059448
aI0
aa(lp20
F290.82451343536377
aI0
aa(lp21
F310.9015805721283
aI0
aa(lp22
F336.69603562355042
aI0
aa(lp23
F356.29694771766663
aI0
aa(lp24
F376.59358859062195
aI0
aa(lp25
F401.07843852043152
aI0
aa(lp26
F418.2544105052948
aI0
aa(lp27
F432.84033250808716
aI0
aa(lp28
F447.78311443328857
aI0
aa(lp29
F461.72416162490845
aI0
aa(lp30
F485.62726068496704
aI0
aa(lp31
F501.57969164848328
aI0
aa(lp32
F524.1038556098938
aI0
aa(lp33
F543.25041747093201
aI0
aa(lp34
F571.50337362289429
aI0
aa(lp35
F596.79361867904663
aI0
aa(lp36
F615.1702287197113
aI0
aa(lp37
F632.73583269119263
aI0
aa(lp38
F650.95987868309021
aI0
aa(lp39
F668.16693663597107
aI0
aa(lp40
F694.81859755516052
aI0
aa(lp41
F717.10866832733154
aI0
aa(lp42
F738.1573474407196
aI0
aa(lp43
F756.97810935974121
aI0
aa(lp44
F773.79761552810669
aI0
aa(lp45
F797.82638335227966
aI0
aa(lp46
F818.85720419883728
aI0
aa(lp47
F837.9271821975708
aI0
aa(lp48
F847.03265023231506
aI0
aa(lp49
F851.93251609802246
aI0
aa(lp50
F868.75688695907593
aI0
aa(lp51
F887.23572206497192
aI0
aa(lp52
F908.99745011329651
aI0
aa(lp53
F929.00924110412598
aI0
aa(lp54
F941.16131496429443
aI0
aa(lp55
F963.31423878669739
aI0
aa(lp56
F986.84572577476501
aI0
aa(lp57
F1008.2207667827606
aI0
aa(lp58
F1025.7974507808685
aI0
aa(lp59
F1040.4225959777832
aI0
aa(lp60
F1058.2727899551392
aI0
aa(lp61
F1077.7204389572144
aI0
aa(lp62
F1099.6315789222717
aI0
aa(lp63
F1119.3181440830231
aI0
aa(lp64
F1142.410637140274
aI0
aa(lp65
F1163.8339600563049
aI0
aa(lp66
F1180.3522682189941
aI0
aa(lp67
F1194.9881763458252
aI0
aa(lp68
F1215.464102268219
aI0
aa(lp69
F1231.7576551437378
aI0
aa(lp70
F1257.4524130821228
aI0
aa(lp71
F1279.3089151382446
aI0
aa(lp72
F1294.7398171424866
aI0
aa(lp73
F1312.9007532596588
aI0
aa(lp74
F1330.1916441917419
aI0
aa(lp75
F1349.7614612579346
aI0
aa(lp76
F1373.2271621227264
aI0
aa(lp77
F1403.029806137085
aI0
aa(lp78
F1419.0440921783447
aI0
aa(lp79
F1433.5734572410583
aI0
aa(lp80
F1457.3753311634064
aI0
aa(lp81
F1479.0356872081757
aI0
aa(lp82
F1494.3676793575287
aI0
aa(lp83
F1515.1913611888885
aI0
aa(lp84
F1532.9708950519562
aI0
aa(lp85
F1554.410295009613
aI0
aa(lp86
F1578.0356130599976
aI0
aa(lp87
F1600.1514391899109
aI0
aa(lp88
F1621.9529590606689
aI0
aa(lp89
F1641.8041591644287
aI0
aa(lp90
F1660.7107410430908
aI0
aa(lp91
F1680.9525971412659
aI0
aa(lp92
F1696.1508111953735
aI0
aa(lp93
F1715.818911075592
aI0
aa(lp94
F1731.6251630783081
aI0
aa(lp95
F1740.1147000789642
aI0
aa(lp96
F1776.328460931778
aI0
aa(lp97
F1810.0090138912201
aI0
aa(lp98
F1830.5926496982574
aI0
aa(lp99
F1848.5972836017609
aI0
aa(lp100
F1871.5578055381775
aI0
aa(lp101
F1892.8351075649261
aI0
aa(lp102
F1909.6985456943512
aI0
aa(lp103
F1929.3636345863342
aI0
aasS'plan'
p104
Ns.