(dp1
S'search_time'
p2
(lp3
(lp4
F25.90120005607605
aI-1
aa(lp5
F49.658428907394409
aI-1
aa(lp6
F65.328942060470581
aI-1
aa(lp7
F79.892367124557495
aI-1
aa(lp8
F99.005078077316284
aI-1
aa(lp9
F116.96044921875
aI-1
aa(lp10
F137.56918334960938
aI-1
aa(lp11
F152.36184525489807
aI-1
aa(lp12
F172.36734008789062
aI0
aa(lp13
F190.44498515129089
aI0
aa(lp14
F205.43531107902527
aI0
aa(lp15
F222.06555414199829
aI0
aa(lp16
F243.00365710258484
aI0
aa(lp17
F262.24227690696716
aI0
aa(lp18
F280.71174001693726
aI0
aa(lp19
F303.87529611587524
aI0
aa(lp20
F324.3285071849823
aI0
aa(lp21
F347.43730425834656
aI0
aa(lp22
F370.78287315368652
aI0
aa(lp23
F396.43349409103394
aI0
aa(lp24
F412.50602006912231
aI0
aa(lp25
F425.29862093925476
aI0
aa(lp26
F448.1772129535675
aI0
aa(lp27
F473.88182783126831
aI0
aa(lp28
F498.71669578552246
aI0
aa(lp29
F516.83506679534912
aI0
aa(lp30
F535.45242786407471
aI0
aa(lp31
F552.44587278366089
aI0
aa(lp32
F574.65770983695984
aI0
aa(lp33
F594.72979283332825
aI0
aa(lp34
F612.10840368270874
aI0
aa(lp35
F638.72411584854126
aI0
aa(lp36
F657.8891658782959
aI0
aa(lp37
F679.95213985443115
aI0
aa(lp38
F698.64114189147949
aI0
aa(lp39
F720.69089102745056
aI0
aa(lp40
F739.10321593284607
aI0
aa(lp41
F755.90112686157227
aI0
aa(lp42
F776.46818089485168
aI0
aa(lp43
F800.53442072868347
aI0
aa(lp44
F814.27501153945923
aI0
aa(lp45
F836.67339253425598
aI0
aa(lp46
F851.56639361381531
aI0
aa(lp47
F866.63715171813965
aI0
aa(lp48
F893.87695860862732
aI0
aa(lp49
F917.97945547103882
aI0
aa(lp50
F936.57559442520142
aI0
aa(lp51
F953.97139954566956
aI0
aa(lp52
F974.28341150283813
aI0
aa(lp53
F989.15004348754883
aI0
aa(lp54
F1009.5707855224609
aI0
aa(lp55
F1028.8117253780365
aI0
aa(lp56
F1046.8412094116211
aI0
aa(lp57
F1062.0620994567871
aI0
aa(lp58
F1085.3461635112762
aI0
aa(lp59
F1104.9241945743561
aI0
aa(lp60
F1134.3348104953766
aI0
aa(lp61
F1155.5346384048462
aI0
aa(lp62
F1176.6999423503876
aI0
aa(lp63
F1195.2132024765015
aI0
aa(lp64
F1210.457560300827
aI0
aa(lp65
F1238.1823654174805
aI0
aa(lp66
F1256.585750579834
aI0
aa(lp67
F1269.6009786128998
aI0
aa(lp68
F1294.4651966094971
aI0
aa(lp69
F1318.2197597026825
aI0
aa(lp70
F1339.8014607429504
aI0
aa(lp71
F1359.7247867584229
aI0
aa(lp72
F1379.6136417388916
aI0
aa(lp73
F1395.3099076747894
aI0
aa(lp74
F1419.0379538536072
aI0
aa(lp75
F1442.1516709327698
aI0
aa(lp76
F1468.3150720596313
aI0
aa(lp77
F1491.6515309810638
aI0
aa(lp78
F1517.9931428432465
aI0
aa(lp79
F1534.2838699817657
aI0
aa(lp80
F1554.7123470306396
aI0
aa(lp81
F1573.3804318904877
aI0
aa(lp82
F1591.1464879512787
aI0
aa(lp83
F1610.2366569042206
aI0
aa(lp84
F1630.511962890625
aI0
aa(lp85
F1648.3522708415985
aI0
aa(lp86
F1677.1763188838959
aI0
aa(lp87
F1704.0025968551636
aI0
aa(lp88
F1717.5909826755524
aI0
aa(lp89
F1732.7398247718811
aI0
aa(lp90
F1753.4610769748688
aI0
aa(lp91
F1773.143089056015
aI0
aa(lp92
F1790.6961450576782
aI0
aa(lp93
F1806.0146660804749
aI0
aa(lp94
F1826.4080131053925
aI0
aa(lp95
F1847.2417681217194
aI0
aa(lp96
F1865.98659491539
aI0
aa(lp97
F1883.6996328830719
aI0
aa(lp98
F1904.7113337516785
aI0
aa(lp99
F1924.5926406383514
aI0
aa(lp100
F1940.4626376628876
aI0
aa(lp101
F1965.3181576728821
aI0
aa(lp102
F1986.3260326385498
aI0
aa(lp103
F2009.4774487018585
aI0
aasS'plan'
p104
Ns.