(dp1
S'search_time'
p2
(lp3
(lp4
F17.463669061660767
aI-2
aa(lp5
F34.978299856185913
aI-2
aa(lp6
F61.323124885559082
aI-2
aa(lp7
F90.282765865325928
aI-2
aa(lp8
F117.69399785995483
aI-2
aa(lp9
F143.75694990158081
aI-2
aa(lp10
F167.70782804489136
aI-2
aa(lp11
F190.12519598007202
aI-2
aa(lp12
F211.925213098526
aI-2
aa(lp13
F233.11176514625549
aI-2
aa(lp14
F258.35770916938782
aI-2
aa(lp15
F282.34084224700928
aI-2
aa(lp16
F308.17486119270325
aI-2
aa(lp17
F333.06692910194397
aI-2
aa(lp18
F358.4284303188324
aI-2
aa(lp19
F383.45082330703735
aI-2
aa(lp20
F413.07567620277405
aI-1
aa(lp21
F441.64348030090332
aI-1
aa(lp22
F471.51191020011902
aI-1
aa(lp23
F500.64153099060059
aI-1
aa(lp24
F532.16800093650818
aI0
aa(lp25
F549.41948199272156
aI0
aa(lp26
F576.06561899185181
aI0
aa(lp27
F595.15744805335999
aI0
aa(lp28
F632.57099509239197
aI0
aa(lp29
F653.04143404960632
aI0
aa(lp30
F680.67733407020569
aI0
aa(lp31
F706.27708888053894
aI0
aa(lp32
F728.66552567481995
aI0
aa(lp33
F754.33345866203308
aI0
aa(lp34
F781.57047486305237
aI0
aa(lp35
F807.24531602859497
aI0
aa(lp36
F829.20306611061096
aI0
aa(lp37
F849.12979793548584
aI0
aa(lp38
F876.81338500976562
aI0
aa(lp39
F902.98595809936523
aI0
aa(lp40
F927.38511514663696
aI0
aa(lp41
F949.21280407905579
aI0
aa(lp42
F976.19568705558777
aI0
aa(lp43
F1001.1956539154053
aI0
aa(lp44
F1017.8551430702209
aI0
aa(lp45
F1029.2772932052612
aI0
aa(lp46
F1059.6788830757141
aI0
aa(lp47
F1082.3520121574402
aI0
aa(lp48
F1104.8226003646851
aI0
aa(lp49
F1119.3207983970642
aI0
aa(lp50
F1134.4261384010315
aI0
aa(lp51
F1155.169543504715
aI0
aa(lp52
F1171.2773904800415
aI0
aa(lp53
F1188.7059094905853
aI0
aa(lp54
F1210.8738164901733
aI0
aa(lp55
F1234.7272374629974
aI0
aa(lp56
F1264.3065354824066
aI0
aa(lp57
F1296.2809176445007
aI0
aa(lp58
F1322.3738965988159
aI0
aa(lp59
F1348.2148857116699
aI0
aa(lp60
F1369.1706955432892
aI0
aa(lp61
F1384.4247734546661
aI0
aa(lp62
F1417.2481994628906
aI0
aa(lp63
F1433.3577024936676
aI0
aa(lp64
F1457.1302075386047
aI0
aa(lp65
F1471.9099135398865
aI0
aa(lp66
F1498.9989945888519
aI0
aa(lp67
F1529.7730197906494
aI0
aa(lp68
F1559.0281867980957
aI0
aa(lp69
F1600.0531048774719
aI0
aa(lp70
F1628.4864978790283
aI0
aa(lp71
F1652.7345108985901
aI0
aa(lp72
F1684.9417037963867
aI0
aa(lp73
F1704.832418680191
aI0
aa(lp74
F1736.4800846576691
aI0
aa(lp75
F1764.5032577514648
aI0
aa(lp76
F1790.2390916347504
aI0
aa(lp77
F1815.2798275947571
aI0
aa(lp78
F1841.7832145690918
aI0
aa(lp79
F1869.7781944274902
aI0
aa(lp80
F1888.7729923725128
aI0
aa(lp81
F1903.939620256424
aI0
aa(lp82
F1927.1031653881073
aI0
aa(lp83
F1949.6490073204041
aI0
aa(lp84
F1975.2900383472443
aI0
aa(lp85
F1999.4709074497223
aI0
aa(lp86
F2025.1232595443726
aI0
aa(lp87
F2049.1082015037537
aI0
aa(lp88
F2077.5616245269775
aI0
aa(lp89
F2103.4773766994476
aI0
aa(lp90
F2131.1941466331482
aI0
aa(lp91
F2155.8438096046448
aI0
aa(lp92
F2172.9745435714722
aI0
aa(lp93
F2199.878392457962
aI0
aa(lp94
F2234.9416816234589
aI0
aa(lp95
F2268.8844747543335
aI0
aa(lp96
F2293.0195078849792
aI0
aa(lp97
F2314.4133508205414
aI0
aa(lp98
F2343.1094088554382
aI0
aa(lp99
F2370.8611097335815
aI0
aa(lp100
F2407.7087078094482
aI0
aa(lp101
F2430.2980179786682
aI0
aa(lp102
F2457.1199128627777
aI0
aa(lp103
F2476.4195618629456
aI0
aasS'plan'
p104
Ns.