(dp1
S'search_time'
p2
(lp3
(lp4
F19.505467891693115
aI-2
aa(lp5
F38.666364908218384
aI-2
aa(lp6
F60.947608947753906
aI-1
aa(lp7
F82.005420923233032
aI-1
aa(lp8
F99.738609790802002
aI-1
aa(lp9
F115.44440770149231
aI-1
aa(lp10
F138.49703073501587
aI-1
aa(lp11
F153.60706782341003
aI-1
aa(lp12
F170.74280500411987
aI-1
aa(lp13
F186.01687407493591
aI-1
aa(lp14
F205.03844094276428
aI-1
aa(lp15
F222.71104407310486
aI-1
aa(lp16
F241.3053081035614
aI-1
aa(lp17
F257.95923209190369
aI-1
aa(lp18
F277.17127108573914
aI-1
aa(lp19
F294.43032717704773
aI-1
aa(lp20
F309.5670382976532
aI-1
aa(lp21
F322.795006275177
aI-1
aa(lp22
F344.91108131408691
aI1
aa(lp23
F363.90263819694519
aI1
aa(lp24
F398.76868224143982
aI1
aa(lp25
F412.5520133972168
aI1
aa(lp26
F427.0938024520874
aI1
aa(lp27
F448.43057751655579
aI1
aa(lp28
F462.76320743560791
aI1
aa(lp29
F474.22069025039673
aI1
aa(lp30
F487.59637928009033
aI1
aa(lp31
F504.46574735641479
aI1
aa(lp32
F526.39269924163818
aI1
aa(lp33
F547.42807412147522
aI1
aa(lp34
F570.07017302513123
aI1
aa(lp35
F583.41785883903503
aI1
aa(lp36
F602.52457690238953
aI1
aa(lp37
F616.6659460067749
aI1
aa(lp38
F633.90332102775574
aI1
aa(lp39
F650.45743799209595
aI1
aa(lp40
F674.77016496658325
aI1
aa(lp41
F696.8312931060791
aI1
aa(lp42
F714.11360192298889
aI1
aa(lp43
F728.21424198150635
aI1
aa(lp44
F742.98873496055603
aI1
aa(lp45
F757.3691508769989
aI1
aa(lp46
F779.05200290679932
aI1
aa(lp47
F798.55955696105957
aI1
aa(lp48
F818.24805903434753
aI1
aa(lp49
F834.35595607757568
aI1
aa(lp50
F859.68988823890686
aI1
aa(lp51
F881.77032518386841
aI1
aa(lp52
F895.68278241157532
aI1
aa(lp53
F912.59417128562927
aI1
aa(lp54
F926.36387228965759
aI1
aa(lp55
F948.01245212554932
aI1
aa(lp56
F961.69040822982788
aI1
aa(lp57
F977.07424736022949
aI1
aa(lp58
F1004.8076343536377
aI1
aa(lp59
F1017.3724384307861
aI1
aa(lp60
F1035.6961803436279
aI1
aa(lp61
F1052.3914742469788
aI1
aa(lp62
F1070.8612010478973
aI1
aa(lp63
F1090.4721570014954
aI1
aa(lp64
F1112.5540549755096
aI1
aa(lp65
F1127.4953870773315
aI1
aa(lp66
F1145.3355269432068
aI1
aa(lp67
F1162.3925929069519
aI1
aa(lp68
F1173.9069421291351
aI1
aa(lp69
F1198.8113741874695
aI1
aa(lp70
F1222.9429142475128
aI1
aa(lp71
F1243.3752331733704
aI1
aa(lp72
F1258.2282712459564
aI1
aa(lp73
F1282.7000532150269
aI1
aa(lp74
F1303.3217890262604
aI1
aa(lp75
F1326.6678211688995
aI1
aa(lp76
F1346.4000680446625
aI1
aa(lp77
F1363.9667258262634
aI1
aa(lp78
F1377.5550849437714
aI1
aa(lp79
F1390.6753778457642
aI1
aa(lp80
F1408.0152487754822
aI1
aa(lp81
F1422.5542049407959
aI1
aa(lp82
F1433.0601208209991
aI1
aa(lp83
F1452.4185175895691
aI1
aa(lp84
F1467.7553174495697
aI1
aa(lp85
F1481.5007174015045
aI1
aa(lp86
F1502.5471663475037
aI1
aa(lp87
F1515.5091023445129
aI1
aa(lp88
F1535.0617523193359
aI1
aa(lp89
F1551.222980260849
aI1
aa(lp90
F1563.7416121959686
aI1
aa(lp91
F1585.6292362213135
aI1
aa(lp92
F1622.4104132652283
aI1
aa(lp93
F1636.2506823539734
aI1
aa(lp94
F1656.3604834079742
aI1
aa(lp95
F1669.0726974010468
aI1
aa(lp96
F1692.4732322692871
aI1
aa(lp97
F1715.1376051902771
aI1
aa(lp98
F1734.4565541744232
aI1
aa(lp99
F1753.8832380771637
aI1
aa(lp100
F1773.4172689914703
aI1
aa(lp101
F1793.3115789890289
aI1
aa(lp102
F1812.0385789871216
aI1
aa(lp103
F1831.2051930427551
aI1
aasS'plan'
p104
Ns.