(dp1
S'search_time'
p2
(lp3
(lp4
F19.031546831130981
aI-2
aa(lp5
F36.175330877304077
aI-2
aa(lp6
F67.789316892623901
aI-1
aa(lp7
F97.53146505355835
aI-1
aa(lp8
F122.53546619415283
aI-1
aa(lp9
F144.80010604858398
aI-1
aa(lp10
F162.91022610664368
aI-1
aa(lp11
F179.30637907981873
aI-1
aa(lp12
F196.59853219985962
aI-1
aa(lp13
F210.34668016433716
aI-1
aa(lp14
F238.64778614044189
aI-1
aa(lp15
F260.5936713218689
aI-1
aa(lp16
F282.60536313056946
aI-1
aa(lp17
F302.38747000694275
aI-1
aa(lp18
F334.32659006118774
aI-1
aa(lp19
F352.34895706176758
aI-1
aa(lp20
F375.93517804145813
aI-1
aa(lp21
F398.01060605049133
aI-1
aa(lp22
F413.16607999801636
aI-1
aa(lp23
F429.59925508499146
aI-1
aa(lp24
F451.6567690372467
aI-1
aa(lp25
F470.88770508766174
aI-1
aa(lp26
F490.59934115409851
aI-1
aa(lp27
F505.72733306884766
aI-1
aa(lp28
F526.63378524780273
aI-1
aa(lp29
F545.49306225776672
aI-1
aa(lp30
F562.39994239807129
aI-1
aa(lp31
F583.5127854347229
aI-1
aa(lp32
F601.59432649612427
aI-1
aa(lp33
F615.56785345077515
aI-1
aa(lp34
F630.89698147773743
aI-1
aa(lp35
F646.84668445587158
aI-1
aa(lp36
F663.62687945365906
aI-1
aa(lp37
F691.99975943565369
aI-1
aa(lp38
F719.07944750785828
aI-1
aa(lp39
F744.50582647323608
aI0
aa(lp40
F766.89236354827881
aI0
aa(lp41
F785.80146169662476
aI0
aa(lp42
F801.50646066665649
aI0
aa(lp43
F830.56169056892395
aI0
aa(lp44
F857.74514651298523
aI0
aa(lp45
F871.46128344535828
aI0
aa(lp46
F890.53662538528442
aI0
aa(lp47
F907.43238735198975
aI0
aa(lp48
F929.6125283241272
aI0
aa(lp49
F948.97455620765686
aI0
aa(lp50
F970.2979052066803
aI0
aa(lp51
F988.62007021903992
aI0
aa(lp52
F1010.548819065094
aI0
aa(lp53
F1029.800498008728
aI0
aa(lp54
F1051.6388521194458
aI0
aa(lp55
F1073.9846420288086
aI0
aa(lp56
F1094.6068949699402
aI0
aa(lp57
F1112.6277990341187
aI0
aa(lp58
F1136.3089060783386
aI0
aa(lp59
F1154.7706122398376
aI0
aa(lp60
F1172.9479012489319
aI0
aa(lp61
F1188.0401403903961
aI0
aa(lp62
F1213.1727232933044
aI0
aa(lp63
F1232.5436964035034
aI0
aa(lp64
F1248.8315403461456
aI0
aa(lp65
F1267.1608562469482
aI0
aa(lp66
F1291.5799701213837
aI0
aa(lp67
F1311.8966131210327
aI0
aa(lp68
F1329.2629582881927
aI0
aa(lp69
F1352.3207433223724
aI0
aa(lp70
F1378.7464504241943
aI0
aa(lp71
F1402.553450345993
aI0
aa(lp72
F1425.1714823246002
aI0
aa(lp73
F1443.394424200058
aI0
aa(lp74
F1461.306948184967
aI0
aa(lp75
F1487.0779252052307
aI0
aa(lp76
F1509.8437690734863
aI0
aa(lp77
F1531.4957649707794
aI0
aa(lp78
F1550.9020888805389
aI0
aa(lp79
F1566.1188499927521
aI0
aa(lp80
F1592.1603128910065
aI0
aa(lp81
F1607.2267289161682
aI0
aa(lp82
F1633.434494972229
aI0
aa(lp83
F1655.8615500926971
aI0
aa(lp84
F1671.8820419311523
aI0
aa(lp85
F1690.5403959751129
aI0
aa(lp86
F1714.3539018630981
aI0
aa(lp87
F1735.9731957912445
aI0
aa(lp88
F1753.5613398551941
aI0
aa(lp89
F1775.2927577495575
aI0
aa(lp90
F1795.1075067520142
aI0
aa(lp91
F1812.6207728385925
aI0
aa(lp92
F1840.7862949371338
aI0
aa(lp93
F1863.6345648765564
aI0
aa(lp94
F1885.9501678943634
aI0
aa(lp95
F1912.6824190616608
aI0
aa(lp96
F1931.2817270755768
aI0
aa(lp97
F1946.9065940380096
aI0
aa(lp98
F1969.5129339694977
aI0
aa(lp99
F1990.641371011734
aI0
aa(lp100
F2013.0170259475708
aI0
aa(lp101
F2039.1779870986938
aI0
aa(lp102
F2061.7108809947968
aI0
aa(lp103
F2087.9815149307251
aI0
aasS'plan'
p104
Ns.