(dp1
S'search_time'
p2
(lp3
(lp4
F18.364482879638672
aI-2
aa(lp5
F35.06045389175415
aI-2
aa(lp6
F55.653887748718262
aI-2
aa(lp7
F75.282927751541138
aI-2
aa(lp8
F99.20673680305481
aI-1
aa(lp9
F120.65936684608459
aI-1
aa(lp10
F146.44286775588989
aI-1
aa(lp11
F172.5747447013855
aI-1
aa(lp12
F196.72889065742493
aI-1
aa(lp13
F218.8301727771759
aI-1
aa(lp14
F247.4635317325592
aI-1
aa(lp15
F275.3162796497345
aI-1
aa(lp16
F292.18910264968872
aI-1
aa(lp17
F319.34957361221313
aI-1
aa(lp18
F334.01809167861938
aI-1
aa(lp19
F361.74027061462402
aI-1
aa(lp20
F385.18570375442505
aI-1
aa(lp21
F407.3302047252655
aI-1
aa(lp22
F427.96667790412903
aI-1
aa(lp23
F458.2505669593811
aI-1
aa(lp24
F484.92581510543823
aI-1
aa(lp25
F509.69490098953247
aI-1
aa(lp26
F537.18484783172607
aI-1
aa(lp27
F568.88417792320251
aI-1
aa(lp28
F592.12726974487305
aI-1
aa(lp29
F614.74186277389526
aI-1
aa(lp30
F629.51620173454285
aI-1
aa(lp31
F648.83467054367065
aI-1
aa(lp32
F667.59106659889221
aI-1
aa(lp33
F685.55062246322632
aI-1
aa(lp34
F707.11041235923767
aI-1
aa(lp35
F726.60209536552429
aI-1
aa(lp36
F744.24654150009155
aI-1
aa(lp37
F762.53975248336792
aI-1
aa(lp38
F788.2345564365387
aI-1
aa(lp39
F813.59617638587952
aI-1
aa(lp40
F835.94826316833496
aI-1
aa(lp41
F855.37267017364502
aI-1
aa(lp42
F884.43502521514893
aI-1
aa(lp43
F909.71877527236938
aI-1
aa(lp44
F933.10745429992676
aI-1
aa(lp45
F954.75326728820801
aI-1
aa(lp46
F981.51463627815247
aI0
aa(lp47
F1006.0245871543884
aI0
aa(lp48
F1023.6025650501251
aI0
aa(lp49
F1041.966059923172
aI0
aa(lp50
F1068.3206260204315
aI0
aa(lp51
F1095.6675541400909
aI0
aa(lp52
F1123.6080152988434
aI0
aa(lp53
F1148.893253326416
aI0
aa(lp54
F1166.9659993648529
aI0
aa(lp55
F1195.3331053256989
aI0
aa(lp56
F1221.246901512146
aI0
aa(lp57
F1246.0797576904297
aI0
aa(lp58
F1275.1328296661377
aI0
aa(lp59
F1292.5125637054443
aI0
aa(lp60
F1310.9958245754242
aI0
aa(lp61
F1333.7772924900055
aI0
aa(lp62
F1355.5201835632324
aI0
aa(lp63
F1371.6975166797638
aI0
aa(lp64
F1396.0899376869202
aI0
aa(lp65
F1417.5753266811371
aI0
aa(lp66
F1439.9880764484406
aI0
aa(lp67
F1459.5458874702454
aI0
aa(lp68
F1482.8725996017456
aI0
aa(lp69
F1507.013516664505
aI0
aa(lp70
F1530.4572865962982
aI0
aa(lp71
F1556.4070065021515
aI0
aa(lp72
F1568.9508213996887
aI0
aa(lp73
F1590.2905075550079
aI0
aa(lp74
F1618.4142067432404
aI0
aa(lp75
F1645.3922116756439
aI0
aa(lp76
F1668.5444495677948
aI0
aa(lp77
F1683.6414706707001
aI0
aa(lp78
F1713.1651396751404
aI0
aa(lp79
F1737.3459815979004
aI0
aa(lp80
F1757.2112994194031
aI0
aa(lp81
F1776.7812063694
aI0
aa(lp82
F1804.7561142444611
aI0
aa(lp83
F1830.5752992630005
aI0
aa(lp84
F1854.8313024044037
aI0
aa(lp85
F1879.0912744998932
aI0
aa(lp86
F1906.5082125663757
aI0
aa(lp87
F1931.5776076316833
aI0
aa(lp88
F1961.8862385749817
aI0
aa(lp89
F1988.0928995609283
aI0
aa(lp90
F2009.9756815433502
aI0
aa(lp91
F2033.5993156433105
aI0
aa(lp92
F2061.3706004619598
aI0
aa(lp93
F2084.7393715381622
aI0
aa(lp94
F2110.861656665802
aI0
aa(lp95
F2135.2006638050079
aI0
aa(lp96
F2156.4938037395477
aI0
aa(lp97
F2178.7098846435547
aI0
aa(lp98
F2198.4079675674438
aI0
aa(lp99
F2218.6945226192474
aI0
aa(lp100
F2244.2011985778809
aI0
aa(lp101
F2268.6543805599213
aI0
aa(lp102
F2291.3270545005798
aI0
aa(lp103
F2312.0849575996399
aI0
aasS'plan'
p104
Ns.