(dp1
S'search_time'
p2
(lp3
(lp4
F23.452178955078125
aI-2
aa(lp5
F45.558813810348511
aI-2
aa(lp6
F77.036914825439453
aI-1
aa(lp7
F94.24443793296814
aI-1
aa(lp8
F112.67719197273254
aI-1
aa(lp9
F136.01672291755676
aI0
aa(lp10
F161.51049089431763
aI0
aa(lp11
F182.5431079864502
aI0
aa(lp12
F206.33426690101624
aI0
aa(lp13
F222.25880789756775
aI0
aa(lp14
F247.88915276527405
aI0
aa(lp15
F270.19637155532837
aI0
aa(lp16
F289.9310085773468
aI0
aa(lp17
F314.06490468978882
aI0
aa(lp18
F333.31089854240417
aI0
aa(lp19
F351.07088160514832
aI0
aa(lp20
F370.04943060874939
aI0
aa(lp21
F393.13705468177795
aI0
aa(lp22
F415.0939347743988
aI0
aa(lp23
F431.32713460922241
aI0
aa(lp24
F450.4852876663208
aI0
aa(lp25
F471.56096768379211
aI0
aa(lp26
F486.95733976364136
aI0
aa(lp27
F504.1105055809021
aI0
aa(lp28
F528.38109135627747
aI0
aa(lp29
F548.35017037391663
aI0
aa(lp30
F570.11895132064819
aI0
aa(lp31
F594.58682942390442
aI0
aa(lp32
F619.18476223945618
aI0
aa(lp33
F626.61784911155701
aI1
aa(lp34
F642.20113611221313
aI1
aa(lp35
F665.6605532169342
aI1
aa(lp36
F682.40813803672791
aI1
aa(lp37
F686.90489816665649
aI1
aa(lp38
F713.24855613708496
aI1
aa(lp39
F728.37731313705444
aI1
aa(lp40
F743.88536334037781
aI1
aa(lp41
F762.81847238540649
aI1
aa(lp42
F781.86446642875671
aI1
aa(lp43
F802.20154738426208
aI1
aa(lp44
F818.1956033706665
aI1
aa(lp45
F841.60805344581604
aI1
aa(lp46
F866.1787474155426
aI1
aa(lp47
F890.00764751434326
aI1
aa(lp48
F907.30957651138306
aI1
aa(lp49
F922.21256470680237
aI1
aa(lp50
F943.60682368278503
aI1
aa(lp51
F962.20270156860352
aI1
aa(lp52
F987.15550851821899
aI1
aa(lp53
F1007.8120584487915
aI1
aa(lp54
F1028.2902634143829
aI1
aa(lp55
F1047.5199553966522
aI1
aa(lp56
F1083.531218290329
aI1
aa(lp57
F1108.3872163295746
aI1
aa(lp58
F1129.471898317337
aI1
aa(lp59
F1148.1621112823486
aI1
aa(lp60
F1169.0668432712555
aI1
aa(lp61
F1190.8130602836609
aI1
aa(lp62
F1207.4921183586121
aI1
aa(lp63
F1225.5948724746704
aI1
aa(lp64
F1250.0555493831635
aI1
aa(lp65
F1265.4436223506927
aI1
aa(lp66
F1288.0208413600922
aI1
aa(lp67
F1304.7006485462189
aI1
aa(lp68
F1318.3683433532715
aI1
aa(lp69
F1347.4858794212341
aI1
aa(lp70
F1366.7624275684357
aI1
aa(lp71
F1378.9720597267151
aI1
aa(lp72
F1400.5410437583923
aI1
aa(lp73
F1424.6559138298035
aI1
aa(lp74
F1444.1048839092255
aI1
aa(lp75
F1463.9272978305817
aI1
aa(lp76
F1480.7898769378662
aI1
aa(lp77
F1506.2411251068115
aI1
aa(lp78
F1523.0433371067047
aI1
aa(lp79
F1544.3045392036438
aI1
aa(lp80
F1565.0413951873779
aI1
aa(lp81
F1583.7654981613159
aI1
aa(lp82
F1601.7790770530701
aI1
aa(lp83
F1615.8707268238068
aI1
aa(lp84
F1632.4985017776489
aI1
aa(lp85
F1648.1581587791443
aI1
aa(lp86
F1672.7198877334595
aI1
aa(lp87
F1689.4756758213043
aI1
aa(lp88
F1708.4917109012604
aI1
aa(lp89
F1730.2382688522339
aI1
aa(lp90
F1751.0342936515808
aI1
aa(lp91
F1762.8469026088715
aI1
aa(lp92
F1780.0356726646423
aI1
aa(lp93
F1795.0507535934448
aI1
aa(lp94
F1832.8660387992859
aI1
aa(lp95
F1854.4531128406525
aI1
aa(lp96
F1875.6974718570709
aI1
aa(lp97
F1894.1552498340607
aI1
aa(lp98
F1910.5329477787018
aI1
aa(lp99
F1936.2631139755249
aI1
aa(lp100
F1960.4431610107422
aI1
aa(lp101
F1976.0454239845276
aI1
aa(lp102
F2001.6173300743103
aI1
aa(lp103
F2019.4416041374207
aI1
aasS'plan'
p104
Ns.