(dp1
S'search_time'
p2
(lp3
(lp4
F17.459352970123291
aI-2
aa(lp5
F34.320738077163696
aI-2
aa(lp6
F54.930731058120728
aI-2
aa(lp7
F73.735772132873535
aI-2
aa(lp8
F96.075208187103271
aI-2
aa(lp9
F117.63214206695557
aI-2
aa(lp10
F131.96856307983398
aI-2
aa(lp11
F145.32970595359802
aI-2
aa(lp12
F165.53559112548828
aI-2
aa(lp13
F184.77889800071716
aI-2
aa(lp14
F204.71947693824768
aI-2
aa(lp15
F223.51168298721313
aI-2
aa(lp16
F250.21974396705627
aI-2
aa(lp17
F275.33056497573853
aI-2
aa(lp18
F304.2091851234436
aI-1
aa(lp19
F331.45758605003357
aI-1
aa(lp20
F348.10613608360291
aI-1
aa(lp21
F374.23933696746826
aI-1
aa(lp22
F397.87303495407104
aI-1
aa(lp23
F430.89243698120117
aI-1
aa(lp24
F454.27447986602783
aI-1
aa(lp25
F481.41810774803162
aI-1
aa(lp26
F500.23555755615234
aI-1
aa(lp27
F527.37165451049805
aI-1
aa(lp28
F554.44763445854187
aI-1
aa(lp29
F581.06701445579529
aI-1
aa(lp30
F599.14848852157593
aI-1
aa(lp31
F615.25626158714294
aI-1
aa(lp32
F630.58547353744507
aI-1
aa(lp33
F658.81085252761841
aI-1
aa(lp34
F675.01619362831116
aI-1
aa(lp35
F696.95234155654907
aI-1
aa(lp36
F718.83525657653809
aI-1
aa(lp37
F739.94154167175293
aI-1
aa(lp38
F763.15178251266479
aI-1
aa(lp39
F783.2911696434021
aI-1
aa(lp40
F807.26838564872742
aI-1
aa(lp41
F831.58005356788635
aI-1
aa(lp42
F856.20589566230774
aI-1
aa(lp43
F879.06623482704163
aI-1
aa(lp44
F897.85945463180542
aI-1
aa(lp45
F924.06189656257629
aI-1
aa(lp46
F947.12669372558594
aI-1
aa(lp47
F968.61748576164246
aI-1
aa(lp48
F989.26967692375183
aI-1
aa(lp49
F1019.5558068752289
aI-1
aa(lp50
F1034.9659068584442
aI-1
aa(lp51
F1064.3757016658783
aI-1
aa(lp52
F1083.5773086547852
aI-1
aa(lp53
F1107.0043957233429
aI-1
aa(lp54
F1139.9721617698669
aI0
aa(lp55
F1159.4674465656281
aI0
aa(lp56
F1181.0896155834198
aI0
aa(lp57
F1194.6883904933929
aI0
aa(lp58
F1216.8702223300934
aI0
aa(lp59
F1236.2044792175293
aI0
aa(lp60
F1264.4940001964569
aI0
aa(lp61
F1284.9458820819855
aI0
aa(lp62
F1308.6353921890259
aI0
aa(lp63
F1330.2735061645508
aI0
aa(lp64
F1348.7639300823212
aI0
aa(lp65
F1376.5953040122986
aI0
aa(lp66
F1397.7181041240692
aI0
aa(lp67
F1426.0233592987061
aI0
aa(lp68
F1447.8408522605896
aI0
aa(lp69
F1474.6555762290955
aI0
aa(lp70
F1501.6064100265503
aI0
aa(lp71
F1520.6362490653992
aI0
aa(lp72
F1539.1853902339935
aI0
aa(lp73
F1556.0338351726532
aI0
aa(lp74
F1571.7860081195831
aI0
aa(lp75
F1595.4094829559326
aI0
aa(lp76
F1614.210865020752
aI0
aa(lp77
F1631.9237158298492
aI0
aa(lp78
F1653.3006789684296
aI0
aa(lp79
F1675.6679258346558
aI0
aa(lp80
F1701.1988189220428
aI0
aa(lp81
F1723.1929478645325
aI0
aa(lp82
F1749.1315338611603
aI0
aa(lp83
F1771.6607367992401
aI0
aa(lp84
F1792.0392897129059
aI0
aa(lp85
F1810.1258685588837
aI0
aa(lp86
F1827.5081374645233
aI0
aa(lp87
F1847.1560354232788
aI0
aa(lp88
F1869.5184304714203
aI0
aa(lp89
F1890.5373005867004
aI0
aa(lp90
F1913.6309018135071
aI0
aa(lp91
F1934.3290038108826
aI0
aa(lp92
F1958.645115852356
aI0
aa(lp93
F1982.292496919632
aI0
aa(lp94
F2006.0993919372559
aI0
aa(lp95
F2028.0645840167999
aI0
aa(lp96
F2054.9421589374542
aI0
aa(lp97
F2072.6142721176147
aI0
aa(lp98
F2100.8258171081543
aI0
aa(lp99
F2115.1308081150055
aI0
aa(lp100
F2145.6711449623108
aI0
aa(lp101
F2166.9361257553101
aI0
aa(lp102
F2195.7363927364349
aI0
aa(lp103
F2222.7071468830109
aI0
aasS'plan'
p104
Ns.