(dp1
S'search_time'
p2
(lp3
(lp4
F18.930637836456299
aI-2
aa(lp5
F36.519758701324463
aI-2
aa(lp6
F52.210860729217529
aI-2
aa(lp7
F66.887473821640015
aI-2
aa(lp8
F81.975850820541382
aI-2
aa(lp9
F95.333306789398193
aI-2
aa(lp10
F116.16680479049683
aI-1
aa(lp11
F135.07171368598938
aI-1
aa(lp12
F156.0487596988678
aI-1
aa(lp13
F175.57921147346497
aI-1
aa(lp14
F191.17048454284668
aI0
aa(lp15
F204.5908534526825
aI0
aa(lp16
F226.16034030914307
aI0
aa(lp17
F244.4808611869812
aI0
aa(lp18
F263.25268626213074
aI0
aa(lp19
F277.1140763759613
aI0
aa(lp20
F295.63398933410645
aI0
aa(lp21
F315.8084511756897
aI0
aa(lp22
F337.8358952999115
aI0
aa(lp23
F357.29212427139282
aI0
aa(lp24
F378.4001612663269
aI0
aa(lp25
F397.24212527275085
aI0
aa(lp26
F421.56318116188049
aI0
aa(lp27
F444.91089034080505
aI0
aa(lp28
F464.82352828979492
aI0
aa(lp29
F484.50343632698059
aI0
aa(lp30
F507.83907246589661
aI0
aa(lp31
F529.4300594329834
aI0
aa(lp32
F549.58160734176636
aI0
aa(lp33
F568.41247534751892
aI0
aa(lp34
F584.17618942260742
aI0
aa(lp35
F598.64179229736328
aI0
aa(lp36
F619.4005012512207
aI0
aa(lp37
F638.1378071308136
aI0
aa(lp38
F654.05868411064148
aI0
aa(lp39
F674.84073305130005
aI0
aa(lp40
F696.45439410209656
aI0
aa(lp41
F715.37995910644531
aI0
aa(lp42
F734.7536301612854
aI0
aa(lp43
F757.72881531715393
aI0
aa(lp44
F773.12691116333008
aI0
aa(lp45
F787.00490117073059
aI0
aa(lp46
F804.49060225486755
aI0
aa(lp47
F843.95684123039246
aI0
aa(lp48
F867.35834717750549
aI0
aa(lp49
F889.20873212814331
aI0
aa(lp50
F915.27318716049194
aI0
aa(lp51
F940.21837997436523
aI0
aa(lp52
F960.79832196235657
aI0
aa(lp53
F979.46720099449158
aI0
aa(lp54
F1004.8019118309021
aI0
aa(lp55
F1028.7966358661652
aI0
aa(lp56
F1049.0980567932129
aI0
aa(lp57
F1066.7481088638306
aI0
aa(lp58
F1088.9325108528137
aI0
aa(lp59
F1109.3588197231293
aI0
aa(lp60
F1124.8181145191193
aI0
aa(lp61
F1139.1336843967438
aI0
aa(lp62
F1160.7543833255768
aI0
aa(lp63
F1178.5012724399567
aI0
aa(lp64
F1193.9895443916321
aI0
aa(lp65
F1210.3664555549622
aI0
aa(lp66
F1229.9525265693665
aI0
aa(lp67
F1247.7151336669922
aI0
aa(lp68
F1270.7186696529388
aI1
aa(lp69
F1289.1094436645508
aI1
aa(lp70
F1309.4797425270081
aI1
aa(lp71
F1334.2910394668579
aI1
aa(lp72
F1349.1812524795532
aI1
aa(lp73
F1367.3565065860748
aI1
aa(lp74
F1381.0870575904846
aI1
aa(lp75
F1400.9714727401733
aI1
aa(lp76
F1417.8838248252869
aI1
aa(lp77
F1431.3536808490753
aI1
aa(lp78
F1447.9017689228058
aI1
aa(lp79
F1461.3547158241272
aI1
aa(lp80
F1477.1332719326019
aI1
aa(lp81
F1500.5762150287628
aI1
aa(lp82
F1524.6473870277405
aI1
aa(lp83
F1543.0320761203766
aI1
aa(lp84
F1567.3644771575928
aI1
aa(lp85
F1590.172669172287
aI1
aa(lp86
F1607.083612203598
aI1
aa(lp87
F1621.0318961143494
aI1
aa(lp88
F1642.8908791542053
aI1
aa(lp89
F1662.8320271968842
aI1
aa(lp90
F1676.8863122463226
aI1
aa(lp91
F1701.9360001087189
aI1
aa(lp92
F1718.0206339359283
aI1
aa(lp93
F1731.5431969165802
aI1
aa(lp94
F1753.7183151245117
aI1
aa(lp95
F1773.7673981189728
aI1
aa(lp96
F1794.3676290512085
aI1
aa(lp97
F1812.3347990512848
aI1
aa(lp98
F1836.3075461387634
aI1
aa(lp99
F1859.8205282688141
aI1
aa(lp100
F1882.5863332748413
aI1
aa(lp101
F1903.5156972408295
aI1
aa(lp102
F1921.3339242935181
aI1
aa(lp103
F1946.9772121906281
aI1
aasS'plan'
p104
Ns.