(dp1
S'search_time'
p2
(lp3
(lp4
F20.543668985366821
aI-1
aa(lp5
F38.778482913970947
aI-1
aa(lp6
F60.996222019195557
aI0
aa(lp7
F79.548846006393433
aI0
aa(lp8
F95.855244159698486
aI0
aa(lp9
F110.03754615783691
aI0
aa(lp10
F129.11168122291565
aI0
aa(lp11
F150.34848523139954
aI0
aa(lp12
F178.62800025939941
aI1
aa(lp13
F202.53237915039062
aI1
aa(lp14
F216.26098728179932
aI1
aa(lp15
F233.57719135284424
aI1
aa(lp16
F259.10709547996521
aI1
aa(lp17
F278.08955955505371
aI1
aa(lp18
F293.44549465179443
aI1
aa(lp19
F311.43887281417847
aI1
aa(lp20
F326.21189570426941
aI1
aa(lp21
F347.0453507900238
aI1
aa(lp22
F366.46768093109131
aI1
aa(lp23
F385.08302879333496
aI1
aa(lp24
F406.75158071517944
aI1
aa(lp25
F425.97144269943237
aI1
aa(lp26
F444.69511365890503
aI1
aa(lp27
F460.41401886940002
aI1
aa(lp28
F483.69374084472656
aI1
aa(lp29
F502.67816877365112
aI1
aa(lp30
F518.48747587203979
aI1
aa(lp31
F535.14153790473938
aI1
aa(lp32
F554.26962685585022
aI1
aa(lp33
F570.65184783935547
aI1
aa(lp34
F593.84476780891418
aI1
aa(lp35
F617.41675877571106
aI1
aa(lp36
F639.96245980262756
aI1
aa(lp37
F658.34742879867554
aI1
aa(lp38
F678.49130773544312
aI1
aa(lp39
F701.2826509475708
aI1
aa(lp40
F718.6110999584198
aI1
aa(lp41
F732.88550281524658
aI1
aa(lp42
F752.89290285110474
aI1
aa(lp43
F772.59250092506409
aI1
aa(lp44
F791.37449884414673
aI1
aa(lp45
F806.21661186218262
aI1
aa(lp46
F828.07261085510254
aI1
aa(lp47
F844.75119686126709
aI1
aa(lp48
F863.10076689720154
aI1
aa(lp49
F887.29424071311951
aI1
aa(lp50
F901.22252464294434
aI1
aa(lp51
F924.71012377738953
aI1
aa(lp52
F944.78208184242249
aI1
aa(lp53
F962.53659200668335
aI1
aa(lp54
F981.84536695480347
aI1
aa(lp55
F999.95393300056458
aI1
aa(lp56
F1028.6377079486847
aI1
aa(lp57
F1052.5236968994141
aI1
aa(lp58
F1070.8564887046814
aI1
aa(lp59
F1096.7213318347931
aI1
aa(lp60
F1119.4959938526154
aI1
aa(lp61
F1135.9324898719788
aI1
aa(lp62
F1152.2624740600586
aI1
aa(lp63
F1173.6134140491486
aI1
aa(lp64
F1198.5621359348297
aI1
aa(lp65
F1220.1840789318085
aI1
aa(lp66
F1239.4350640773773
aI1
aa(lp67
F1256.0529239177704
aI1
aa(lp68
F1272.3345119953156
aI1
aa(lp69
F1286.3934640884399
aI1
aa(lp70
F1299.0717070102692
aI1
aa(lp71
F1329.4488759040833
aI1
aa(lp72
F1344.5549969673157
aI1
aa(lp73
F1356.6515579223633
aI1
aa(lp74
F1375.1687259674072
aI1
aa(lp75
F1395.8400828838348
aI1
aa(lp76
F1412.6219010353088
aI1
aa(lp77
F1430.2241768836975
aI1
aa(lp78
F1444.0401289463043
aI1
aa(lp79
F1467.9286298751831
aI1
aa(lp80
F1488.8931858539581
aI1
aa(lp81
F1507.0835309028625
aI1
aa(lp82
F1527.9929099082947
aI1
aa(lp83
F1546.0895719528198
aI1
aa(lp84
F1573.7308068275452
aI1
aa(lp85
F1590.5480828285217
aI1
aa(lp86
F1615.0712897777557
aI1
aa(lp87
F1630.7287166118622
aI1
aa(lp88
F1651.8450047969818
aI1
aa(lp89
F1673.8866467475891
aI1
aa(lp90
F1688.6167547702789
aI1
aa(lp91
F1703.312433719635
aI1
aa(lp92
F1729.5129027366638
aI1
aa(lp93
F1750.6070916652679
aI1
aa(lp94
F1768.1534967422485
aI1
aa(lp95
F1784.7776365280151
aI1
aa(lp96
F1806.0989775657654
aI1
aa(lp97
F1826.9695174694061
aI1
aa(lp98
F1848.8329412937164
aI1
aa(lp99
F1867.8105063438416
aI1
aa(lp100
F1886.430563211441
aI1
aa(lp101
F1908.3157203197479
aI1
aa(lp102
F1921.8893342018127
aI1
aa(lp103
F1940.6934280395508
aI1
aasS'plan'
p104
Ns.