(dp1
S'search_time'
p2
(lp3
(lp4
F17.893079042434692
aI-2
aa(lp5
F34.70251202583313
aI-2
aa(lp6
F58.323843002319336
aI-2
aa(lp7
F81.726723909378052
aI-2
aa(lp8
F104.75747108459473
aI-2
aa(lp9
F137.20664000511169
aI-1
aa(lp10
F155.28996992111206
aI-1
aa(lp11
F184.69287371635437
aI-1
aa(lp12
F209.64303874969482
aI-1
aa(lp13
F223.43813180923462
aI-1
aa(lp14
F247.94460582733154
aI-1
aa(lp15
F270.87982678413391
aI-1
aa(lp16
F299.30710887908936
aI-1
aa(lp17
F319.26382088661194
aI-1
aa(lp18
F346.32111191749573
aI-1
aa(lp19
F379.78687882423401
aI-1
aa(lp20
F404.27699875831604
aI-1
aa(lp21
F423.26869368553162
aI-1
aa(lp22
F449.41742277145386
aI-1
aa(lp23
F474.42459964752197
aI-1
aa(lp24
F496.32112646102905
aI-1
aa(lp25
F524.38300657272339
aI-1
aa(lp26
F550.85767865180969
aI-1
aa(lp27
F574.67189145088196
aI-1
aa(lp28
F598.67217540740967
aI-1
aa(lp29
F615.26513934135437
aI-1
aa(lp30
F644.02038836479187
aI-1
aa(lp31
F666.73719453811646
aI-1
aa(lp32
F687.24786853790283
aI-1
aa(lp33
F704.15543270111084
aI-1
aa(lp34
F729.33382964134216
aI-1
aa(lp35
F754.29263162612915
aI-1
aa(lp36
F779.30965757369995
aI-1
aa(lp37
F801.76518869400024
aI-1
aa(lp38
F822.40236067771912
aI-1
aa(lp39
F848.2174346446991
aI-1
aa(lp40
F870.20435667037964
aI-1
aa(lp41
F907.89942455291748
aI-1
aa(lp42
F931.85950469970703
aI-1
aa(lp43
F958.8474006652832
aI-1
aa(lp44
F994.51928281784058
aI-1
aa(lp45
F1010.368754863739
aI0
aa(lp46
F1033.9575388431549
aI0
aa(lp47
F1058.4536347389221
aI0
aa(lp48
F1084.2807717323303
aI0
aa(lp49
F1098.4060697555542
aI0
aa(lp50
F1128.7740378379822
aI0
aa(lp51
F1159.6789019107819
aI0
aa(lp52
F1186.4389538764954
aI0
aa(lp53
F1202.7062087059021
aI0
aa(lp54
F1224.941312789917
aI0
aa(lp55
F1252.2255749702454
aI0
aa(lp56
F1277.0654139518738
aI0
aa(lp57
F1294.9842488765717
aI0
aa(lp58
F1318.4766888618469
aI0
aa(lp59
F1348.5610768795013
aI0
aa(lp60
F1365.728533744812
aI0
aa(lp61
F1380.6530785560608
aI0
aa(lp62
F1414.2246556282043
aI0
aa(lp63
F1441.8406217098236
aI0
aa(lp64
F1465.1946485042572
aI0
aa(lp65
F1491.8513433933258
aI0
aa(lp66
F1506.7354125976562
aI0
aa(lp67
F1531.7098886966705
aI0
aa(lp68
F1552.052259683609
aI0
aa(lp69
F1578.6399757862091
aI0
aa(lp70
F1595.1066288948059
aI0
aa(lp71
F1608.5942280292511
aI0
aa(lp72
F1641.339959859848
aI0
aa(lp73
F1668.6594169139862
aI0
aa(lp74
F1696.159943819046
aI0
aa(lp75
F1722.0228350162506
aI0
aa(lp76
F1740.1369290351868
aI0
aa(lp77
F1752.7334141731262
aI0
aa(lp78
F1774.8457982540131
aI0
aa(lp79
F1798.1510512828827
aI0
aa(lp80
F1822.4854352474213
aI0
aa(lp81
F1845.6889653205872
aI0
aa(lp82
F1872.8444972038269
aI0
aa(lp83
F1887.6805691719055
aI0
aa(lp84
F1906.1940953731537
aI0
aa(lp85
F1917.7803373336792
aI0
aa(lp86
F1939.5355744361877
aI0
aa(lp87
F1984.5258193016052
aI0
aa(lp88
F2012.9322612285614
aI0
aa(lp89
F2028.1886191368103
aI0
aa(lp90
F2048.7020502090454
aI0
aa(lp91
F2075.521653175354
aI0
aa(lp92
F2099.7411270141602
aI0
aa(lp93
F2118.6866178512573
aI0
aa(lp94
F2137.9746787548065
aI0
aa(lp95
F2167.0046198368073
aI0
aa(lp96
F2189.4561388492584
aI0
aa(lp97
F2214.1520838737488
aI0
aa(lp98
F2241.3890740871429
aI0
aa(lp99
F2264.0542230606079
aI0
aa(lp100
F2291.8365361690521
aI0
aa(lp101
F2312.468266248703
aI0
aa(lp102
F2333.0769703388214
aI0
aa(lp103
F2353.1673192977905
aI0
aasS'plan'
p104
Ns.