(dp1
S'search_time'
p2
(lp3
(lp4
F22.541328907012939
aI-2
aa(lp5
F44.911710977554321
aI-2
aa(lp6
F66.183674812316895
aI-2
aa(lp7
F86.661488771438599
aI-2
aa(lp8
F104.91968274116516
aI-2
aa(lp9
F122.30988383293152
aI-2
aa(lp10
F140.81597280502319
aI-2
aa(lp11
F158.4088888168335
aI-2
aa(lp12
F181.02159380912781
aI-2
aa(lp13
F202.85376572608948
aI-2
aa(lp14
F223.93078184127808
aI-2
aa(lp15
F244.74222493171692
aI-2
aa(lp16
F261.25345277786255
aI-2
aa(lp17
F275.44082283973694
aI-2
aa(lp18
F297.89668083190918
aI-1
aa(lp19
F317.63433289527893
aI-1
aa(lp20
F339.31500172615051
aI-1
aa(lp21
F358.9427375793457
aI-1
aa(lp22
F379.80103254318237
aI-1
aa(lp23
F394.22953057289124
aI-1
aa(lp24
F410.17928552627563
aI-1
aa(lp25
F425.22797966003418
aI-1
aa(lp26
F455.24890851974487
aI-1
aa(lp27
F482.08901953697205
aI-1
aa(lp28
F504.35366153717041
aI-1
aa(lp29
F525.87050652503967
aI-1
aa(lp30
F555.01911544799805
aI-1
aa(lp31
F582.1827175617218
aI-1
aa(lp32
F602.41293573379517
aI-1
aa(lp33
F619.61213183403015
aI-1
aa(lp34
F638.5418758392334
aI-1
aa(lp35
F658.11745667457581
aI-1
aa(lp36
F675.94257974624634
aI-1
aa(lp37
F692.84183478355408
aI-1
aa(lp38
F720.65867161750793
aI-1
aa(lp39
F743.8218777179718
aI-1
aa(lp40
F758.33870792388916
aI-1
aa(lp41
F780.01312780380249
aI-1
aa(lp42
F799.85614275932312
aI-1
aa(lp43
F821.11697578430176
aI-1
aa(lp44
F849.33264374732971
aI-1
aa(lp45
F874.45964956283569
aI-1
aa(lp46
F898.10539269447327
aI-1
aa(lp47
F923.62552857398987
aI-1
aa(lp48
F946.07356643676758
aI-1
aa(lp49
F966.65975856781006
aI-1
aa(lp50
F991.45892643928528
aI0
aa(lp51
F1014.1512634754181
aI0
aa(lp52
F1036.9300322532654
aI0
aa(lp53
F1058.1753172874451
aI0
aa(lp54
F1088.183509349823
aI0
aa(lp55
F1115.8720343112946
aI0
aa(lp56
F1133.1062281131744
aI0
aa(lp57
F1154.1158132553101
aI0
aa(lp58
F1174.3562390804291
aI0
aa(lp59
F1197.9497139453888
aI0
aa(lp60
F1219.6843748092651
aI0
aa(lp61
F1248.8219408988953
aI0
aa(lp62
F1267.7177000045776
aI0
aa(lp63
F1291.5638711452484
aI0
aa(lp64
F1314.7549922466278
aI0
aa(lp65
F1337.0447022914886
aI0
aa(lp66
F1360.9136674404144
aI0
aa(lp67
F1379.8671145439148
aI0
aa(lp68
F1402.6583626270294
aI0
aa(lp69
F1423.9542305469513
aI0
aa(lp70
F1447.6055545806885
aI0
aa(lp71
F1468.8683745861053
aI0
aa(lp72
F1496.553825378418
aI0
aa(lp73
F1517.35098528862
aI0
aa(lp74
F1535.2424702644348
aI0
aa(lp75
F1556.6202294826508
aI0
aa(lp76
F1581.1768734455109
aI0
aa(lp77
F1604.4355914592743
aI0
aa(lp78
F1621.7654414176941
aI0
aa(lp79
F1649.1042604446411
aI0
aa(lp80
F1672.0216345787048
aI0
aa(lp81
F1692.9472846984863
aI0
aa(lp82
F1717.7141306400299
aI0
aa(lp83
F1739.3328506946564
aI0
aa(lp84
F1757.5844876766205
aI0
aa(lp85
F1786.7998456954956
aI0
aa(lp86
F1814.941802740097
aI0
aa(lp87
F1840.8004677295685
aI0
aa(lp88
F1865.1041796207428
aI0
aa(lp89
F1884.1710486412048
aI0
aa(lp90
F1912.496794462204
aI0
aa(lp91
F1930.6351084709167
aI0
aa(lp92
F1954.350061416626
aI0
aa(lp93
F1977.3823153972626
aI0
aa(lp94
F2003.1383874416351
aI0
aa(lp95
F2028.0444934368134
aI0
aa(lp96
F2049.5775353908539
aI0
aa(lp97
F2074.0423333644867
aI0
aa(lp98
F2098.0501863956451
aI0
aa(lp99
F2119.8077583312988
aI0
aa(lp100
F2144.1869702339172
aI0
aa(lp101
F2169.8137471675873
aI0
aa(lp102
F2191.6898131370544
aI0
aa(lp103
F2211.9626352787018
aI0
aasS'plan'
p104
Ns.