(dp1
S'search_time'
p2
(lp3
(lp4
F17.782417058944702
aI-2
aa(lp5
F34.561809062957764
aI-2
aa(lp6
F53.892207145690918
aI0
aa(lp7
F70.445142269134521
aI0
aa(lp8
F84.530292272567749
aI0
aa(lp9
F103.90365934371948
aI0
aa(lp10
F120.63048124313354
aI0
aa(lp11
F139.63852334022522
aI0
aa(lp12
F161.09037137031555
aI0
aa(lp13
F183.27999544143677
aI0
aa(lp14
F199.77660751342773
aI0
aa(lp15
F220.38354444503784
aI0
aa(lp16
F241.59062457084656
aI0
aa(lp17
F256.65078353881836
aI0
aa(lp18
F269.96761846542358
aI0
aa(lp19
F287.44646644592285
aI0
aa(lp20
F308.43535947799683
aI0
aa(lp21
F333.11764144897461
aI0
aa(lp22
F350.76575040817261
aI0
aa(lp23
F365.02697134017944
aI0
aa(lp24
F387.30350136756897
aI0
aa(lp25
F407.3857684135437
aI0
aa(lp26
F423.18278050422668
aI0
aa(lp27
F441.96537041664124
aI0
aa(lp28
F463.56229043006897
aI0
aa(lp29
F476.75236535072327
aI0
aa(lp30
F493.81883525848389
aI0
aa(lp31
F512.52116918563843
aI0
aa(lp32
F527.89125895500183
aI0
aa(lp33
F540.36243295669556
aI0
aa(lp34
F561.99645900726318
aI0
aa(lp35
F582.56426095962524
aI0
aa(lp36
F608.14946794509888
aI0
aa(lp37
F623.78353381156921
aI0
aa(lp38
F643.77054595947266
aI0
aa(lp39
F662.66748905181885
aI0
aa(lp40
F676.14570307731628
aI0
aa(lp41
F688.33814215660095
aI0
aa(lp42
F707.44220519065857
aI0
aa(lp43
F731.39095211029053
aI0
aa(lp44
F750.07789325714111
aI0
aa(lp45
F766.43060040473938
aI0
aa(lp46
F779.78247928619385
aI0
aa(lp47
F793.55781435966492
aI0
aa(lp48
F805.3220694065094
aI0
aa(lp49
F822.07076334953308
aI0
aa(lp50
F838.14574337005615
aI0
aa(lp51
F852.30602526664734
aI0
aa(lp52
F872.96263718605042
aI0
aa(lp53
F894.68479418754578
aI0
aa(lp54
F914.87928223609924
aI0
aa(lp55
F934.10030841827393
aI0
aa(lp56
F956.50871539115906
aI1
aa(lp57
F969.0769214630127
aI1
aa(lp58
F991.91931343078613
aI1
aa(lp59
F1011.1218254566193
aI1
aa(lp60
F1026.0088863372803
aI1
aa(lp61
F1051.1778223514557
aI1
aa(lp62
F1067.1880724430084
aI1
aa(lp63
F1091.6909744739532
aI1
aa(lp64
F1107.1558923721313
aI1
aa(lp65
F1121.1638493537903
aI1
aa(lp66
F1137.9207572937012
aI1
aa(lp67
F1153.1049523353577
aI1
aa(lp68
F1171.8932883739471
aI1
aa(lp69
F1183.0833823680878
aI1
aa(lp70
F1200.3092353343964
aI1
aa(lp71
F1217.6238543987274
aI1
aa(lp72
F1232.1379466056824
aI1
aa(lp73
F1245.0873064994812
aI1
aa(lp74
F1266.9945495128632
aI1
aa(lp75
F1283.7325444221497
aI1
aa(lp76
F1304.6476323604584
aI1
aa(lp77
F1327.8631982803345
aI1
aa(lp78
F1356.8143672943115
aI1
aa(lp79
F1373.2341303825378
aI1
aa(lp80
F1392.513120174408
aI1
aa(lp81
F1411.3734652996063
aI1
aa(lp82
F1426.7947871685028
aI1
aa(lp83
F1441.9934272766113
aI1
aa(lp84
F1456.2288801670074
aI1
aa(lp85
F1478.9690501689911
aI1
aa(lp86
F1497.2890372276306
aI1
aa(lp87
F1515.1276822090149
aI1
aa(lp88
F1533.8149120807648
aI1
aa(lp89
F1550.963171005249
aI1
aa(lp90
F1577.6790170669556
aI1
aa(lp91
F1594.3600940704346
aI1
aa(lp92
F1607.6825060844421
aI1
aa(lp93
F1625.5161392688751
aI1
aa(lp94
F1642.7612471580505
aI1
aa(lp95
F1658.5422689914703
aI1
aa(lp96
F1674.4751241207123
aI1
aa(lp97
F1691.4888691902161
aI1
aa(lp98
F1705.9543590545654
aI1
aa(lp99
F1718.164412021637
aI1
aa(lp100
F1731.4784960746765
aI1
aa(lp101
F1746.9244310855865
aI1
aa(lp102
F1765.551488161087
aI1
aa(lp103
F1786.7225081920624
aI1
aasS'plan'
p104
Ns.