(dp1
S'search_time'
p2
(lp3
(lp4
F25.66661810874939
aI-2
aa(lp5
F50.93310809135437
aI-2
aa(lp6
F68.215461254119873
aI-2
aa(lp7
F84.509636163711548
aI-2
aa(lp8
F101.44806027412415
aI-2
aa(lp9
F117.84653115272522
aI-2
aa(lp10
F142.77141118049622
aI-2
aa(lp11
F167.25835204124451
aI-2
aa(lp12
F191.17723107337952
aI-2
aa(lp13
F214.50656509399414
aI-2
aa(lp14
F236.17744207382202
aI-1
aa(lp15
F254.99524021148682
aI-1
aa(lp16
F282.30258226394653
aI-1
aa(lp17
F309.28473520278931
aI-1
aa(lp18
F325.4683141708374
aI-1
aa(lp19
F345.47357320785522
aI-1
aa(lp20
F364.71951627731323
aI-1
aa(lp21
F380.91479325294495
aI-1
aa(lp22
F401.22476935386658
aI-1
aa(lp23
F418.2091703414917
aI-1
aa(lp24
F436.06142711639404
aI-1
aa(lp25
F453.23123502731323
aI-1
aa(lp26
F474.58958983421326
aI-1
aa(lp27
F494.90828490257263
aI-1
aa(lp28
F515.22817897796631
aI-1
aa(lp29
F533.49686002731323
aI-1
aa(lp30
F553.43225288391113
aI-1
aa(lp31
F578.24354386329651
aI-1
aa(lp32
F604.71339297294617
aI-1
aa(lp33
F628.84475803375244
aI-1
aa(lp34
F645.30311393737793
aI-1
aa(lp35
F660.6303448677063
aI-1
aa(lp36
F683.97027468681335
aI-1
aa(lp37
F702.41293454170227
aI-1
aa(lp38
F733.41526341438293
aI-1
aa(lp39
F756.06614232063293
aI-1
aa(lp40
F773.50340342521667
aI0
aa(lp41
F788.12024140357971
aI0
aa(lp42
F811.81000542640686
aI0
aa(lp43
F839.68716335296631
aI0
aa(lp44
F868.56490635871887
aI0
aa(lp45
F882.87384414672852
aI0
aa(lp46
F910.07079029083252
aI0
aa(lp47
F937.0396203994751
aI0
aa(lp48
F963.06160354614258
aI0
aa(lp49
F978.78643035888672
aI0
aa(lp50
F1003.6334671974182
aI0
aa(lp51
F1016.2707371711731
aI0
aa(lp52
F1038.7941842079163
aI0
aa(lp53
F1065.099701166153
aI0
aa(lp54
F1094.2729790210724
aI0
aa(lp55
F1112.6748061180115
aI0
aa(lp56
F1129.7394781112671
aI0
aa(lp57
F1142.6921911239624
aI0
aa(lp58
F1166.3033971786499
aI0
aa(lp59
F1187.4996590614319
aI0
aa(lp60
F1205.1132121086121
aI0
aa(lp61
F1223.1198890209198
aI0
aa(lp62
F1252.5125930309296
aI0
aa(lp63
F1277.6537041664124
aI0
aa(lp64
F1304.506058216095
aI0
aa(lp65
F1324.7033581733704
aI0
aa(lp66
F1346.4764852523804
aI0
aa(lp67
F1365.0145163536072
aI0
aa(lp68
F1378.984382390976
aI0
aa(lp69
F1392.1629242897034
aI0
aa(lp70
F1409.7858183383942
aI0
aa(lp71
F1424.4960904121399
aI0
aa(lp72
F1448.0359995365143
aI0
aa(lp73
F1468.5959455966949
aI0
aa(lp74
F1496.42600274086
aI0
aa(lp75
F1520.2360727787018
aI0
aa(lp76
F1536.2410538196564
aI0
aa(lp77
F1555.1530389785767
aI0
aa(lp78
F1581.734060049057
aI0
aa(lp79
F1596.2815120220184
aI0
aa(lp80
F1610.9738159179688
aI0
aa(lp81
F1640.3644309043884
aI0
aa(lp82
F1660.7523739337921
aI0
aa(lp83
F1689.6673939228058
aI0
aa(lp84
F1710.0029008388519
aI0
aa(lp85
F1734.4015789031982
aI0
aa(lp86
F1766.5294377803802
aI0
aa(lp87
F1782.400025844574
aI0
aa(lp88
F1807.5360848903656
aI0
aa(lp89
F1827.2152490615845
aI0
aa(lp90
F1849.6733059883118
aI0
aa(lp91
F1869.5055918693542
aI0
aa(lp92
F1890.1750087738037
aI0
aa(lp93
F1907.2034118175507
aI0
aa(lp94
F1931.3788759708405
aI0
aa(lp95
F1952.5468368530273
aI0
aa(lp96
F1979.5565710067749
aI0
aa(lp97
F2005.2332768440247
aI0
aa(lp98
F2029.5329148769379
aI0
aa(lp99
F2050.2141637802124
aI0
aa(lp100
F2070.230744600296
aI0
aa(lp101
F2091.189234495163
aI0
aa(lp102
F2112.5734934806824
aI0
aa(lp103
F2129.2888844013214
aI0
aasS'plan'
p104
Ns.