(dp1
S'search_time'
p2
(lp3
(lp4
F21.651607990264893
aI-1
aa(lp5
F41.679301023483276
aI-1
aa(lp6
F62.980045080184937
aI-1
aa(lp7
F80.083137035369873
aI-1
aa(lp8
F98.462905883789062
aI-1
aa(lp9
F111.40617275238037
aI-1
aa(lp10
F143.16358280181885
aI0
aa(lp11
F162.09161877632141
aI0
aa(lp12
F183.58876872062683
aI0
aa(lp13
F202.6216287612915
aI0
aa(lp14
F221.65322971343994
aI0
aa(lp15
F241.73771286010742
aI0
aa(lp16
F258.99463391304016
aI0
aa(lp17
F279.11620283126831
aI0
aa(lp18
F303.34887003898621
aI0
aa(lp19
F322.20785522460938
aI0
aa(lp20
F351.67987418174744
aI0
aa(lp21
F377.70104122161865
aI0
aa(lp22
F397.87109422683716
aI0
aa(lp23
F416.23102235794067
aI0
aa(lp24
F433.66866636276245
aI0
aa(lp25
F451.60759234428406
aI0
aa(lp26
F481.94839644432068
aI0
aa(lp27
F503.72818231582642
aI0
aa(lp28
F535.89118623733521
aI0
aa(lp29
F550.36538219451904
aI0
aa(lp30
F570.20657110214233
aI0
aa(lp31
F590.17467498779297
aI0
aa(lp32
F613.75804710388184
aI0
aa(lp33
F637.10448002815247
aI0
aa(lp34
F659.70645499229431
aI0
aa(lp35
F680.88802790641785
aI0
aa(lp36
F700.05059695243835
aI0
aa(lp37
F720.83656477928162
aI0
aa(lp38
F737.1128396987915
aI0
aa(lp39
F757.11562967300415
aI0
aa(lp40
F773.76789665222168
aI0
aa(lp41
F790.41120862960815
aI0
aa(lp42
F805.96229457855225
aI0
aa(lp43
F824.12912964820862
aI0
aa(lp44
F848.76296758651733
aI0
aa(lp45
F869.18320965766907
aI0
aa(lp46
F895.99881863594055
aI0
aa(lp47
F918.96792364120483
aI0
aa(lp48
F946.17926669120789
aI0
aa(lp49
F966.96124053001404
aI0
aa(lp50
F986.04771137237549
aI0
aa(lp51
F1011.9435074329376
aI0
aa(lp52
F1038.449741601944
aI0
aa(lp53
F1061.0089495182037
aI0
aa(lp54
F1079.7018535137177
aI0
aa(lp55
F1099.2196705341339
aI0
aa(lp56
F1126.0483884811401
aI0
aa(lp57
F1151.3920094966888
aI0
aa(lp58
F1171.3593566417694
aI0
aa(lp59
F1188.6033425331116
aI0
aa(lp60
F1209.5172364711761
aI0
aa(lp61
F1226.0649526119232
aI0
aa(lp62
F1250.9491326808929
aI0
aa(lp63
F1274.4689028263092
aI0
aa(lp64
F1300.2334966659546
aI0
aa(lp65
F1324.1452007293701
aI0
aa(lp66
F1346.4090826511383
aI0
aa(lp67
F1370.8830006122589
aI0
aa(lp68
F1392.577202796936
aI0
aa(lp69
F1412.986056804657
aI0
aa(lp70
F1435.3156309127808
aI0
aa(lp71
F1457.8635079860687
aI0
aa(lp72
F1483.9356319904327
aI0
aa(lp73
F1507.2919631004333
aI0
aa(lp74
F1527.1360142230988
aI0
aa(lp75
F1542.9968183040619
aI0
aa(lp76
F1561.6164524555206
aI0
aa(lp77
F1581.5332903862
aI0
aa(lp78
F1605.6412625312805
aI0
aa(lp79
F1627.0161075592041
aI0
aa(lp80
F1647.2416837215424
aI0
aa(lp81
F1663.8524267673492
aI0
aa(lp82
F1689.236912727356
aI0
aa(lp83
F1711.0711266994476
aI0
aa(lp84
F1729.8327946662903
aI0
aa(lp85
F1753.725174665451
aI0
aa(lp86
F1775.1663174629211
aI0
aa(lp87
F1794.822550535202
aI0
aa(lp88
F1823.7704095840454
aI0
aa(lp89
F1848.8089065551758
aI0
aa(lp90
F1871.8608124256134
aI0
aa(lp91
F1893.051762342453
aI0
aa(lp92
F1917.6219701766968
aI0
aa(lp93
F1939.6026542186737
aI0
aa(lp94
F1956.9793992042542
aI0
aa(lp95
F1978.8316211700439
aI0
aa(lp96
F2003.9360840320587
aI0
aa(lp97
F2031.2250459194183
aI0
aa(lp98
F2050.0512619018555
aI0
aa(lp99
F2065.9032068252563
aI0
aa(lp100
F2089.4288377761841
aI0
aa(lp101
F2110.3197627067566
aI0
aa(lp102
F2138.1366047859192
aI0
aa(lp103
F2154.9288017749786
aI0
aasS'plan'
p104
Ns.