(dp1
S'search_time'
p2
(lp3
(lp4
F24.11699104309082
aI-2
aa(lp5
F47.072293043136597
aI-2
aa(lp6
F70.427512884140015
aI0
aa(lp7
F91.110661745071411
aI0
aa(lp8
F111.18553280830383
aI0
aa(lp9
F128.71963596343994
aI0
aa(lp10
F150.14567995071411
aI0
aa(lp11
F171.45865988731384
aI0
aa(lp12
F194.08094596862793
aI0
aa(lp13
F210.04938101768494
aI0
aa(lp14
F231.36961603164673
aI0
aa(lp15
F249.56760597229004
aI0
aa(lp16
F267.88240194320679
aI0
aa(lp17
F289.79067492485046
aI0
aa(lp18
F311.34304094314575
aI0
aa(lp19
F331.35842990875244
aI0
aa(lp20
F357.9414210319519
aI0
aa(lp21
F381.74823498725891
aI0
aa(lp22
F402.86397504806519
aI0
aa(lp23
F420.827476978302
aI1
aa(lp24
F443.22365117073059
aI1
aa(lp25
F459.2757511138916
aI1
aa(lp26
F485.30337524414062
aI1
aa(lp27
F507.83278036117554
aI1
aa(lp28
F527.27730846405029
aI1
aa(lp29
F550.20713257789612
aI1
aa(lp30
F571.00981473922729
aI1
aa(lp31
F594.78486967086792
aI1
aa(lp32
F615.39390873908997
aI1
aa(lp33
F633.81225156784058
aI1
aa(lp34
F654.85759878158569
aI1
aa(lp35
F676.38556981086731
aI1
aa(lp36
F697.45335078239441
aI1
aa(lp37
F715.55728769302368
aI1
aa(lp38
F735.26712369918823
aI1
aa(lp39
F752.39143371582031
aI1
aa(lp40
F770.30506563186646
aI1
aa(lp41
F786.389244556427
aI1
aa(lp42
F801.48282742500305
aI1
aa(lp43
F814.47855830192566
aI1
aa(lp44
F835.22163844108582
aI1
aa(lp45
F862.22771644592285
aI1
aa(lp46
F880.55074143409729
aI1
aa(lp47
F896.44710731506348
aI1
aa(lp48
F913.86166143417358
aI1
aa(lp49
F937.83278942108154
aI1
aa(lp50
F956.30924940109253
aI1
aa(lp51
F970.78320240974426
aI1
aa(lp52
F989.62861037254333
aI1
aa(lp53
F1017.3719494342804
aI1
aa(lp54
F1043.0520904064178
aI1
aa(lp55
F1066.7479784488678
aI1
aa(lp56
F1088.589423418045
aI1
aa(lp57
F1108.2021753787994
aI1
aa(lp58
F1124.7320582866669
aI1
aa(lp59
F1143.4980983734131
aI1
aa(lp60
F1164.0225994586945
aI1
aa(lp61
F1183.1146614551544
aI1
aa(lp62
F1200.9663844108582
aI1
aa(lp63
F1216.4019992351532
aI1
aa(lp64
F1235.523540019989
aI1
aa(lp65
F1251.8458380699158
aI1
aa(lp66
F1271.0184800624847
aI1
aa(lp67
F1286.6578569412231
aI1
aa(lp68
F1305.3066399097443
aI1
aa(lp69
F1324.1863477230072
aI1
aa(lp70
F1340.1890785694122
aI1
aa(lp71
F1359.0256905555725
aI1
aa(lp72
F1377.3556215763092
aI1
aa(lp73
F1399.2405114173889
aI1
aa(lp74
F1420.025806427002
aI1
aa(lp75
F1442.0066492557526
aI1
aa(lp76
F1463.5601952075958
aI1
aa(lp77
F1479.5442361831665
aI1
aa(lp78
F1499.7497100830078
aI1
aa(lp79
F1516.9223890304565
aI1
aa(lp80
F1534.492965221405
aI1
aa(lp81
F1554.9603972434998
aI1
aa(lp82
F1593.3366732597351
aI1
aa(lp83
F1613.9360044002533
aI1
aa(lp84
F1634.8178224563599
aI1
aa(lp85
F1653.7761902809143
aI1
aa(lp86
F1676.5051543712616
aI1
aa(lp87
F1691.3853285312653
aI1
aa(lp88
F1712.4698865413666
aI1
aa(lp89
F1729.6130225658417
aI1
aa(lp90
F1743.8619487285614
aI1
aa(lp91
F1765.5005927085876
aI1
aa(lp92
F1783.7639725208282
aI1
aa(lp93
F1800.8073306083679
aI1
aa(lp94
F1819.1968586444855
aI1
aa(lp95
F1840.1999385356903
aI1
aa(lp96
F1861.9369354248047
aI1
aa(lp97
F1878.5861732959747
aI1
aa(lp98
F1900.2985701560974
aI1
aa(lp99
F1921.1249029636383
aI1
aa(lp100
F1940.9778759479523
aI1
aa(lp101
F1957.9274621009827
aI1
aa(lp102
F1975.7879781723022
aI1
aa(lp103
F1992.5040819644928
aI1
aasS'plan'
p104
Ns.