(dp1
S'search_time'
p2
(lp3
(lp4
F30.606369018554688
aI-2
aa(lp5
F57.991735935211182
aI-2
aa(lp6
F76.803600072860718
aI-1
aa(lp7
F94.162400007247925
aI-1
aa(lp8
F108.81873893737793
aI-1
aa(lp9
F128.71695399284363
aI-1
aa(lp10
F146.79176592826843
aI-1
aa(lp11
F162.30605792999268
aI-1
aa(lp12
F184.41612696647644
aI-1
aa(lp13
F215.78192090988159
aI0
aa(lp14
F229.74434876441956
aI0
aa(lp15
F245.44843578338623
aI0
aa(lp16
F264.12477779388428
aI0
aa(lp17
F278.82177495956421
aI0
aa(lp18
F293.28731513023376
aI0
aa(lp19
F310.00497102737427
aI0
aa(lp20
F322.38136601448059
aI0
aa(lp21
F333.51540303230286
aI0
aa(lp22
F350.80424499511719
aI0
aa(lp23
F367.26915287971497
aI0
aa(lp24
F384.21307587623596
aI0
aa(lp25
F406.65123987197876
aI0
aa(lp26
F423.42049598693848
aI0
aa(lp27
F437.88346791267395
aI0
aa(lp28
F457.02799201011658
aI0
aa(lp29
F473.21662592887878
aI0
aa(lp30
F484.79495096206665
aI0
aa(lp31
F506.88690209388733
aI0
aa(lp32
F524.98160195350647
aI0
aa(lp33
F544.3517599105835
aI0
aa(lp34
F557.05146384239197
aI0
aa(lp35
F569.38307595252991
aI0
aa(lp36
F583.30055999755859
aI0
aa(lp37
F605.07826399803162
aI0
aa(lp38
F618.10615611076355
aI0
aa(lp39
F636.54525423049927
aI0
aa(lp40
F652.28852915763855
aI0
aa(lp41
F664.33477520942688
aI0
aa(lp42
F680.89752316474915
aI0
aa(lp43
F695.53977108001709
aI0
aa(lp44
F709.8639349937439
aI0
aa(lp45
F737.35907483100891
aI0
aa(lp46
F750.91500496864319
aI0
aa(lp47
F763.3917829990387
aI0
aa(lp48
F796.15703988075256
aI0
aa(lp49
F827.60695886611938
aI0
aa(lp50
F842.5909206867218
aI0
aa(lp51
F856.42663764953613
aI0
aa(lp52
F873.05759477615356
aI0
aa(lp53
F885.17080879211426
aI0
aa(lp54
F904.08915495872498
aI0
aa(lp55
F922.3612699508667
aI0
aa(lp56
F935.2848207950592
aI0
aa(lp57
F952.89775776863098
aI0
aa(lp58
F967.80204391479492
aI0
aa(lp59
F980.3025438785553
aI0
aa(lp60
F997.44949984550476
aI0
aa(lp61
F1013.0721559524536
aI0
aa(lp62
F1028.5070838928223
aI0
aa(lp63
F1040.9180977344513
aI0
aa(lp64
F1057.675972700119
aI0
aa(lp65
F1074.5363335609436
aI0
aa(lp66
F1089.8424036502838
aI0
aa(lp67
F1108.4315576553345
aI0
aa(lp68
F1123.2859826087952
aI0
aa(lp69
F1153.0362067222595
aI0
aa(lp70
F1170.2050926685333
aI0
aa(lp71
F1186.4163517951965
aI0
aa(lp72
F1201.4157438278198
aI0
aa(lp73
F1213.2102978229523
aI0
aa(lp74
F1236.7738876342773
aI0
aa(lp75
F1256.8532407283783
aI0
aa(lp76
F1273.6898307800293
aI0
aa(lp77
F1294.8494956493378
aI0
aa(lp78
F1308.7742786407471
aI0
aa(lp79
F1321.2002077102661
aI0
aa(lp80
F1339.2202217578888
aI0
aa(lp81
F1361.9503817558289
aI0
aa(lp82
F1383.8192217350006
aI0
aa(lp83
F1403.9926857948303
aI0
aa(lp84
F1421.9168848991394
aI0
aa(lp85
F1437.3926780223846
aI0
aa(lp86
F1455.4749529361725
aI0
aa(lp87
F1467.6048328876495
aI0
aa(lp88
F1483.1408579349518
aI0
aa(lp89
F1501.8263020515442
aI0
aa(lp90
F1525.5613920688629
aI0
aa(lp91
F1544.7022340297699
aI0
aa(lp92
F1567.7088479995728
aI0
aa(lp93
F1584.6118149757385
aI0
aa(lp94
F1607.5888509750366
aI0
aa(lp95
F1623.0422809123993
aI0
aa(lp96
F1637.339644908905
aI0
aa(lp97
F1658.334883928299
aI0
aa(lp98
F1676.093649148941
aI0
aa(lp99
F1697.3940842151642
aI0
aa(lp100
F1712.4713170528412
aI0
aa(lp101
F1725.0911540985107
aI0
aa(lp102
F1744.6598160266876
aI0
aa(lp103
F1760.423476934433
aI0
aasS'plan'
p104
Ns.