(dp1
S'search_time'
p2
(lp3
(lp4
F14.307830095291138
aI-1
aa(lp5
F27.202252149581909
aI-1
aa(lp6
F42.689603090286255
aI-1
aa(lp7
F63.591812133789062
aI-1
aa(lp8
F83.02332615852356
aI-1
aa(lp9
F100.77628111839294
aI-1
aa(lp10
F121.85298800468445
aI-1
aa(lp11
F140.81672596931458
aI-1
aa(lp12
F160.15323996543884
aI-1
aa(lp13
F177.39705204963684
aI-1
aa(lp14
F204.87693119049072
aI-1
aa(lp15
F230.56883406639099
aI-1
aa(lp16
F245.80282497406006
aI-1
aa(lp17
F260.14241886138916
aI-1
aa(lp18
F270.55890274047852
aI-1
aa(lp19
F278.36678266525269
aI-1
aa(lp20
F294.85125756263733
aI-1
aa(lp21
F311.82696151733398
aI-1
aa(lp22
F339.67941045761108
aI0
aa(lp23
F365.10576844215393
aI0
aa(lp24
F381.33291530609131
aI0
aa(lp25
F395.32137727737427
aI0
aa(lp26
F413.17433142662048
aI0
aa(lp27
F431.81231737136841
aI0
aa(lp28
F443.8633885383606
aI0
aa(lp29
F463.02205538749695
aI0
aa(lp30
F478.2302234172821
aI0
aa(lp31
F495.24600338935852
aI0
aa(lp32
F521.24647641181946
aI0
aa(lp33
F538.72116041183472
aI0
aa(lp34
F559.99944949150085
aI0
aa(lp35
F585.47152042388916
aI0
aa(lp36
F606.23861837387085
aI0
aa(lp37
F623.81989336013794
aI0
aa(lp38
F649.73202133178711
aI0
aa(lp39
F670.93279051780701
aI0
aa(lp40
F696.57277345657349
aI0
aa(lp41
F710.37265157699585
aI0
aa(lp42
F733.55364155769348
aI0
aa(lp43
F750.49536943435669
aI0
aa(lp44
F778.02906346321106
aI0
aa(lp45
F791.96362853050232
aI0
aa(lp46
F813.8218367099762
aI0
aa(lp47
F833.48655080795288
aI0
aa(lp48
F847.05941867828369
aI0
aa(lp49
F863.44397163391113
aI0
aa(lp50
F881.63542151451111
aI0
aa(lp51
F901.25146555900574
aI0
aa(lp52
F917.71527743339539
aI0
aa(lp53
F933.44313955307007
aI0
aa(lp54
F945.80935168266296
aI0
aa(lp55
F957.72590351104736
aI0
aa(lp56
F977.82754349708557
aI0
aa(lp57
F993.25706744194031
aI0
aa(lp58
F1010.902806520462
aI0
aa(lp59
F1031.2426424026489
aI0
aa(lp60
F1046.5675914287567
aI0
aa(lp61
F1063.3654096126556
aI0
aa(lp62
F1083.5999886989594
aI0
aa(lp63
F1101.7044036388397
aI0
aa(lp64
F1126.9831695556641
aI0
aa(lp65
F1150.5724425315857
aI0
aa(lp66
F1173.0705065727234
aI0
aa(lp67
F1196.9463627338409
aI0
aa(lp68
F1211.585994720459
aI0
aa(lp69
F1224.6694357395172
aI0
aa(lp70
F1241.9913647174835
aI0
aa(lp71
F1266.5217707157135
aI0
aa(lp72
F1286.2399606704712
aI0
aa(lp73
F1304.2464747428894
aI0
aa(lp74
F1322.8169956207275
aI0
aa(lp75
F1340.0989475250244
aI0
aa(lp76
F1364.3789105415344
aI0
aa(lp77
F1384.2559263706207
aI0
aa(lp78
F1400.8972313404083
aI0
aa(lp79
F1415.9802153110504
aI0
aa(lp80
F1430.8021035194397
aI0
aa(lp81
F1452.3513674736023
aI0
aa(lp82
F1476.8978054523468
aI0
aa(lp83
F1494.2254753112793
aI0
aa(lp84
F1513.6743042469025
aI0
aa(lp85
F1531.3584222793579
aI0
aa(lp86
F1556.4908113479614
aI0
aa(lp87
F1579.4106683731079
aI0
aa(lp88
F1597.3306064605713
aI0
aa(lp89
F1613.3920094966888
aI0
aa(lp90
F1637.0458664894104
aI0
aa(lp91
F1660.3040256500244
aI0
aa(lp92
F1686.3678436279297
aI0
aa(lp93
F1710.8115046024323
aI0
aa(lp94
F1718.5873985290527
aI0
aa(lp95
F1724.1171836853027
aI0
aa(lp96
F1746.1614406108856
aI0
aa(lp97
F1763.2020366191864
aI0
aa(lp98
F1786.1149845123291
aI0
aa(lp99
F1807.1920773983002
aI0
aa(lp100
F1822.1386303901672
aI0
aa(lp101
F1845.6551213264465
aI0
aa(lp102
F1863.1967453956604
aI0
aa(lp103
F1877.0828864574432
aI0
aasS'plan'
p104
Ns.