(dp1
S'search_time'
p2
(lp3
(lp4
F15.810540199279785
aI-1
aa(lp5
F28.710190057754517
aI-1
aa(lp6
F41.864037275314331
aI-1
aa(lp7
F56.783907413482666
aI-1
aa(lp8
F70.880338430404663
aI-1
aa(lp9
F82.486470460891724
aI-1
aa(lp10
F99.263495445251465
aI-1
aa(lp11
F121.86335730552673
aI-1
aa(lp12
F133.20876336097717
aI-1
aa(lp13
F154.93001651763916
aI-1
aa(lp14
F174.67517852783203
aI-1
aa(lp15
F188.72166657447815
aI-1
aa(lp16
F202.80332374572754
aI-1
aa(lp17
F221.52204370498657
aI0
aa(lp18
F241.28903579711914
aI0
aa(lp19
F259.40149474143982
aI0
aa(lp20
F273.22487878799438
aI0
aa(lp21
F290.22912383079529
aI0
aa(lp22
F303.8582170009613
aI0
aa(lp23
F320.26249313354492
aI0
aa(lp24
F339.46681332588196
aI0
aa(lp25
F356.9041543006897
aI0
aa(lp26
F373.09501028060913
aI0
aa(lp27
F386.98476934432983
aI0
aa(lp28
F404.40892028808594
aI0
aa(lp29
F418.94878530502319
aI0
aa(lp30
F439.4919764995575
aI0
aa(lp31
F458.35453844070435
aI0
aa(lp32
F474.45793437957764
aI0
aa(lp33
F489.80965232849121
aI0
aa(lp34
F508.36638522148132
aI0
aa(lp35
F525.71038222312927
aI0
aa(lp36
F550.08930420875549
aI0
aa(lp37
F571.59625315666199
aI0
aa(lp38
F588.42050623893738
aI0
aa(lp39
F603.34896516799927
aI0
aa(lp40
F627.55024123191833
aI0
aa(lp41
F650.08614134788513
aI0
aa(lp42
F664.9911584854126
aI0
aa(lp43
F678.76652145385742
aI0
aa(lp44
F694.31084251403809
aI0
aa(lp45
F707.45416331291199
aI0
aa(lp46
F732.28449821472168
aI0
aa(lp47
F747.64623832702637
aI0
aa(lp48
F762.02770137786865
aI0
aa(lp49
F779.16468548774719
aI0
aa(lp50
F802.79422760009766
aI0
aa(lp51
F825.47625350952148
aI0
aa(lp52
F840.9039626121521
aI0
aa(lp53
F862.82004761695862
aI0
aa(lp54
F886.40715169906616
aI0
aa(lp55
F907.44289970397949
aI0
aa(lp56
F919.45312857627869
aI0
aa(lp57
F933.25554752349854
aI0
aa(lp58
F948.81013941764832
aI0
aa(lp59
F963.04134154319763
aI0
aa(lp60
F986.16468858718872
aI0
aa(lp61
F998.98169159889221
aI0
aa(lp62
F1015.1939995288849
aI0
aa(lp63
F1029.6356475353241
aI0
aa(lp64
F1048.2463314533234
aI0
aa(lp65
F1066.1590263843536
aI0
aa(lp66
F1086.5224792957306
aI0
aa(lp67
F1102.0137932300568
aI0
aa(lp68
F1118.7848472595215
aI0
aa(lp69
F1133.5568532943726
aI0
aa(lp70
F1172.4050023555756
aI0
aa(lp71
F1209.655430316925
aI0
aa(lp72
F1224.0427575111389
aI0
aa(lp73
F1243.258392572403
aI0
aa(lp74
F1255.7120635509491
aI0
aa(lp75
F1277.067022562027
aI0
aa(lp76
F1299.1905994415283
aI0
aa(lp77
F1319.8674645423889
aI0
aa(lp78
F1342.4313707351685
aI0
aa(lp79
F1362.7660088539124
aI0
aa(lp80
F1388.5795459747314
aI0
aa(lp81
F1411.6818697452545
aI0
aa(lp82
F1432.1194605827332
aI0
aa(lp83
F1454.3684415817261
aI0
aa(lp84
F1469.2168784141541
aI0
aa(lp85
F1489.5535652637482
aI0
aa(lp86
F1510.4317042827606
aI0
aa(lp87
F1525.9388704299927
aI0
aa(lp88
F1540.6862235069275
aI0
aa(lp89
F1565.2315204143524
aI0
aa(lp90
F1580.6166512966156
aI0
aa(lp91
F1599.5297293663025
aI0
aa(lp92
F1613.8780994415283
aI0
aa(lp93
F1626.9370963573456
aI0
aa(lp94
F1643.7246985435486
aI0
aa(lp95
F1657.1031556129456
aI0
aa(lp96
F1676.1934916973114
aI0
aa(lp97
F1695.8021538257599
aI0
aa(lp98
F1711.6985428333282
aI0
aa(lp99
F1724.9279026985168
aI0
aa(lp100
F1747.8949058055878
aI0
aa(lp101
F1767.8063778877258
aI0
aa(lp102
F1784.7005848884583
aI0
aa(lp103
F1810.359808921814
aI0
aasS'plan'
p104
Ns.