(dp1
S'search_time'
p2
(lp3
(lp4
F18.369168996810913
aI-1
aa(lp5
F31.454901218414307
aI-1
aa(lp6
F55.856810331344604
aI-1
aa(lp7
F82.485128402709961
aI0
aa(lp8
F103.16009330749512
aI0
aa(lp9
F125.10426712036133
aI0
aa(lp10
F150.44711017608643
aI0
aa(lp11
F169.06542611122131
aI0
aa(lp12
F194.03426814079285
aI0
aa(lp13
F211.68932318687439
aI0
aa(lp14
F230.43547511100769
aI0
aa(lp15
F246.5499529838562
aI0
aa(lp16
F275.27615094184875
aI0
aa(lp17
F302.55405306816101
aI0
aa(lp18
F332.29699897766113
aI0
aa(lp19
F359.47876405715942
aI0
aa(lp20
F380.35433602333069
aI0
aa(lp21
F407.95984721183777
aI0
aa(lp22
F434.01168417930603
aI0
aa(lp23
F458.21243906021118
aI0
aa(lp24
F477.60587024688721
aI0
aa(lp25
F505.46489310264587
aI0
aa(lp26
F522.24729204177856
aI0
aa(lp27
F550.69563484191895
aI0
aa(lp28
F578.61312794685364
aI0
aa(lp29
F602.19565892219543
aI0
aa(lp30
F630.90424990653992
aI0
aa(lp31
F659.54443907737732
aI0
aa(lp32
F683.92041707038879
aI0
aa(lp33
F712.56737112998962
aI0
aa(lp34
F735.18503427505493
aI0
aa(lp35
F761.00118017196655
aI0
aa(lp36
F796.13122415542603
aI0
aa(lp37
F819.87641406059265
aI0
aa(lp38
F847.87962102890015
aI0
aa(lp39
F866.18209624290466
aI1
aa(lp40
F891.24834513664246
aI1
aa(lp41
F913.81936120986938
aI1
aa(lp42
F937.45604419708252
aI1
aa(lp43
F959.55760216712952
aI1
aa(lp44
F974.35249710083008
aI1
aa(lp45
F986.88066101074219
aI1
aa(lp46
F1006.0524609088898
aI1
aa(lp47
F1019.9383118152618
aI1
aa(lp48
F1041.4921629428864
aI1
aa(lp49
F1063.8931019306183
aI1
aa(lp50
F1090.3337769508362
aI1
aa(lp51
F1113.7831168174744
aI1
aa(lp52
F1145.9988498687744
aI1
aa(lp53
F1163.1862938404083
aI1
aa(lp54
F1192.6969497203827
aI1
aa(lp55
F1215.9523458480835
aI1
aa(lp56
F1248.933650970459
aI1
aa(lp57
F1267.3909800052643
aI1
aa(lp58
F1284.4469039440155
aI1
aa(lp59
F1297.8806810379028
aI1
aa(lp60
F1321.7776310443878
aI1
aa(lp61
F1341.8489260673523
aI1
aa(lp62
F1358.7851901054382
aI1
aa(lp63
F1371.4573481082916
aI1
aa(lp64
F1394.4392111301422
aI1
aa(lp65
F1415.6664822101593
aI1
aa(lp66
F1440.5522429943085
aI1
aa(lp67
F1452.3443329334259
aI1
aa(lp68
F1475.7340807914734
aI1
aa(lp69
F1507.0294737815857
aI1
aa(lp70
F1531.9803996086121
aI1
aa(lp71
F1554.3468637466431
aI1
aa(lp72
F1581.133223772049
aI1
aa(lp73
F1603.2787628173828
aI1
aa(lp74
F1632.2300755977631
aI1
aa(lp75
F1659.8060386180878
aI1
aa(lp76
F1685.5495026111603
aI1
aa(lp77
F1698.6056957244873
aI1
aa(lp78
F1724.6454827785492
aI1
aa(lp79
F1745.4826197624207
aI1
aa(lp80
F1768.6895818710327
aI1
aa(lp81
F1792.3365178108215
aI1
aa(lp82
F1813.3586478233337
aI1
aa(lp83
F1833.2215077877045
aI1
aa(lp84
F1853.724672794342
aI1
aa(lp85
F1885.2480187416077
aI1
aa(lp86
F1906.7533247470856
aI1
aa(lp87
F1932.5801618099213
aI1
aa(lp88
F1965.8402469158173
aI1
aa(lp89
F1987.2902939319611
aI1
aa(lp90
F2017.516685962677
aI1
aa(lp91
F2043.7890341281891
aI1
aa(lp92
F2070.4933593273163
aI1
aa(lp93
F2097.8481643199921
aI1
aa(lp94
F2122.6774022579193
aI1
aa(lp95
F2142.2153654098511
aI1
aa(lp96
F2165.1832993030548
aI1
aa(lp97
F2187.0630321502686
aI1
aa(lp98
F2212.1530709266663
aI1
aa(lp99
F2233.4962799549103
aI1
aa(lp100
F2258.619943857193
aI1
aa(lp101
F2278.943856716156
aI1
aa(lp102
F2311.1328618526459
aI1
aa(lp103
F2334.0554118156433
aI1
aasS'plan'
p104
Ns.