(dp1
S'search_time'
p2
(lp3
(lp4
F14.847332954406738
aI-2
aa(lp5
F29.197461128234863
aI-2
aa(lp6
F49.722520112991333
aI-1
aa(lp7
F68.03004002571106
aI-1
aa(lp8
F87.765055894851685
aI-1
aa(lp9
F105.96480774879456
aI-1
aa(lp10
F123.66434979438782
aI-1
aa(lp11
F149.00726890563965
aI0
aa(lp12
F163.20958185195923
aI0
aa(lp13
F186.28407096862793
aI0
aa(lp14
F203.82097792625427
aI0
aa(lp15
F234.05186986923218
aI1
aa(lp16
F250.45769381523132
aI1
aa(lp17
F276.53432989120483
aI1
aa(lp18
F300.57566094398499
aI1
aa(lp19
F322.40459585189819
aI1
aa(lp20
F338.3027708530426
aI1
aa(lp21
F355.64463686943054
aI1
aa(lp22
F373.33751583099365
aI1
aa(lp23
F392.18201065063477
aI1
aa(lp24
F408.12545871734619
aI1
aa(lp25
F425.858229637146
aI1
aa(lp26
F443.44548177719116
aI1
aa(lp27
F460.48440170288086
aI1
aa(lp28
F480.4722216129303
aI1
aa(lp29
F497.1866307258606
aI1
aa(lp30
F514.91788172721863
aI1
aa(lp31
F530.29397988319397
aI1
aa(lp32
F545.45392799377441
aI1
aa(lp33
F560.17503809928894
aI1
aa(lp34
F582.78171300888062
aI1
aa(lp35
F602.12644696235657
aI1
aa(lp36
F624.28430891036987
aI1
aa(lp37
F644.28343677520752
aI1
aa(lp38
F667.88660168647766
aI1
aa(lp39
F682.90696668624878
aI1
aa(lp40
F704.87864470481873
aI1
aa(lp41
F721.92292857170105
aI1
aa(lp42
F745.11531162261963
aI1
aa(lp43
F766.75443363189697
aI1
aa(lp44
F785.80668544769287
aI1
aa(lp45
F805.41723537445068
aI1
aa(lp46
F822.03627133369446
aI1
aa(lp47
F842.42830228805542
aI1
aa(lp48
F864.53595924377441
aI1
aa(lp49
F877.37514519691467
aI1
aa(lp50
F894.01457905769348
aI1
aa(lp51
F907.68162703514099
aI1
aa(lp52
F925.70914196968079
aI1
aa(lp53
F948.12292695045471
aI1
aa(lp54
F967.2577109336853
aI1
aa(lp55
F980.44516372680664
aI1
aa(lp56
F997.68244671821594
aI1
aa(lp57
F1017.0695216655731
aI1
aa(lp58
F1038.6854686737061
aI1
aa(lp59
F1058.9454617500305
aI1
aa(lp60
F1080.1163947582245
aI1
aa(lp61
F1099.7618937492371
aI1
aa(lp62
F1123.4863886833191
aI1
aa(lp63
F1147.6024587154388
aI1
aa(lp64
F1166.319831609726
aI1
aa(lp65
F1182.367550611496
aI1
aa(lp66
F1197.8861486911774
aI1
aa(lp67
F1238.3814885616302
aI1
aa(lp68
F1253.685685634613
aI1
aa(lp69
F1266.4578278064728
aI1
aa(lp70
F1290.7030057907104
aI1
aa(lp71
F1312.1967186927795
aI1
aa(lp72
F1332.4579977989197
aI1
aa(lp73
F1353.4640038013458
aI1
aa(lp74
F1381.0049359798431
aI1
aa(lp75
F1404.4759049415588
aI1
aa(lp76
F1429.5236668586731
aI1
aa(lp77
F1445.9429490566254
aI1
aa(lp78
F1462.606861114502
aI1
aa(lp79
F1485.9999072551727
aI1
aa(lp80
F1503.5159063339233
aI1
aa(lp81
F1517.2524762153625
aI1
aa(lp82
F1537.7854590415955
aI1
aa(lp83
F1555.2783632278442
aI1
aa(lp84
F1571.3386104106903
aI1
aa(lp85
F1589.9135494232178
aI1
aa(lp86
F1607.4439325332642
aI1
aa(lp87
F1625.5350425243378
aI1
aa(lp88
F1644.747029542923
aI1
aa(lp89
F1671.668550491333
aI1
aa(lp90
F1689.7928283214569
aI1
aa(lp91
F1724.9260025024414
aI1
aa(lp92
F1745.8092443943024
aI1
aa(lp93
F1763.1698653697968
aI1
aa(lp94
F1783.0443964004517
aI1
aa(lp95
F1801.1374983787537
aI1
aa(lp96
F1820.1788463592529
aI1
aa(lp97
F1839.6005024909973
aI1
aa(lp98
F1863.0655245780945
aI1
aa(lp99
F1888.2771415710449
aI1
aa(lp100
F1903.4848585128784
aI1
aa(lp101
F1916.5484116077423
aI1
aa(lp102
F1940.0748536586761
aI1
aa(lp103
F1955.5030407905579
aI1
aasS'plan'
p104
Ns.