(dp1
S'search_time'
p2
(lp3
(lp4
F23.967842102050781
aI-1
aa(lp5
F46.09151291847229
aI-1
aa(lp6
F75.319270133972168
aI-1
aa(lp7
F104.06710004806519
aI-1
aa(lp8
F123.44892811775208
aI-1
aa(lp9
F143.067143201828
aI-1
aa(lp10
F165.47448515892029
aI-1
aa(lp11
F186.71841907501221
aI-1
aa(lp12
F206.92490124702454
aI-1
aa(lp13
F230.36902928352356
aI-1
aa(lp14
F255.20628929138184
aI-1
aa(lp15
F280.281405210495
aI-1
aa(lp16
F303.00398826599121
aI-1
aa(lp17
F326.40591025352478
aI-1
aa(lp18
F344.412278175354
aI-1
aa(lp19
F361.63009023666382
aI-1
aa(lp20
F380.86929512023926
aI-1
aa(lp21
F397.5469822883606
aI-1
aa(lp22
F417.08472418785095
aI0
aa(lp23
F432.28315424919128
aI0
aa(lp24
F457.63316035270691
aI0
aa(lp25
F483.60175728797913
aI0
aa(lp26
F503.56386923789978
aI0
aa(lp27
F523.97004342079163
aI0
aa(lp28
F541.26005554199219
aI0
aa(lp29
F560.86585474014282
aI0
aa(lp30
F583.89114665985107
aI0
aa(lp31
F604.95801472663879
aI0
aa(lp32
F622.79838681221008
aI0
aa(lp33
F638.71002960205078
aI0
aa(lp34
F663.98475742340088
aI0
aa(lp35
F677.88396334648132
aI0
aa(lp36
F697.53086042404175
aI0
aa(lp37
F714.16678857803345
aI0
aa(lp38
F732.82021164894104
aI0
aa(lp39
F752.1146388053894
aI0
aa(lp40
F780.25112462043762
aI0
aa(lp41
F803.55033659934998
aI0
aa(lp42
F826.71762776374817
aI0
aa(lp43
F844.82594084739685
aI0
aa(lp44
F863.55400991439819
aI0
aa(lp45
F887.19492292404175
aI0
aa(lp46
F904.91670513153076
aI0
aa(lp47
F921.93360018730164
aI0
aa(lp48
F940.09756708145142
aI0
aa(lp49
F957.18346118927002
aI0
aa(lp50
F981.06044316291809
aI0
aa(lp51
F1004.2619361877441
aI0
aa(lp52
F1032.0052311420441
aI0
aa(lp53
F1056.511714220047
aI0
aa(lp54
F1086.864705324173
aI0
aa(lp55
F1113.7583832740784
aI0
aa(lp56
F1139.1378953456879
aI0
aa(lp57
F1162.5666103363037
aI0
aa(lp58
F1191.6729245185852
aI0
aa(lp59
F1215.4644465446472
aI0
aa(lp60
F1244.9686615467072
aI0
aa(lp61
F1271.192925453186
aI0
aa(lp62
F1292.7572665214539
aI0
aa(lp63
F1320.1111943721771
aI0
aa(lp64
F1340.990802526474
aI0
aa(lp65
F1360.5674984455109
aI0
aa(lp66
F1382.8246233463287
aI0
aa(lp67
F1398.6235952377319
aI0
aa(lp68
F1413.3488252162933
aI0
aa(lp69
F1428.778510093689
aI0
aa(lp70
F1452.5019409656525
aI0
aa(lp71
F1473.7673978805542
aI0
aa(lp72
F1494.284099817276
aI0
aa(lp73
F1513.9488477706909
aI0
aa(lp74
F1534.0998468399048
aI0
aa(lp75
F1550.9178259372711
aI0
aa(lp76
F1568.8439657688141
aI0
aa(lp77
F1585.9769587516785
aI0
aa(lp78
F1611.4440457820892
aI0
aa(lp79
F1634.0506448745728
aI0
aa(lp80
F1659.3097698688507
aI0
aa(lp81
F1683.3433229923248
aI0
aa(lp82
F1704.230663061142
aI0
aa(lp83
F1723.3902699947357
aI0
aa(lp84
F1738.5429620742798
aI0
aa(lp85
F1752.2209031581879
aI0
aa(lp86
F1773.5478942394257
aI0
aa(lp87
F1791.999439239502
aI0
aa(lp88
F1826.131706237793
aI0
aa(lp89
F1851.065220117569
aI0
aa(lp90
F1882.1637341976166
aI0
aa(lp91
F1903.2289912700653
aI0
aa(lp92
F1928.9207234382629
aI0
aa(lp93
F1952.9994673728943
aI0
aa(lp94
F1976.1185772418976
aI0
aa(lp95
F1997.7291352748871
aI0
aa(lp96
F2022.5989592075348
aI0
aa(lp97
F2047.0774612426758
aI0
aa(lp98
F2068.6916902065277
aI0
aa(lp99
F2099.1892671585083
aI0
aa(lp100
F2121.8329141139984
aI0
aa(lp101
F2143.8697819709778
aI0
aa(lp102
F2167.7631390094757
aI0
aa(lp103
F2190.9198729991913
aI0
aasS'plan'
p104
Ns.