(dp1
S'search_time'
p2
(lp3
(lp4
F16.438188076019287
aI-2
aa(lp5
F31.669105052947998
aI-2
aa(lp6
F48.691426992416382
aI-2
aa(lp7
F65.18835711479187
aI-2
aa(lp8
F91.313307285308838
aI0
aa(lp9
F114.53505611419678
aI0
aa(lp10
F129.59510016441345
aI0
aa(lp11
F147.98571729660034
aI0
aa(lp12
F163.84804940223694
aI0
aa(lp13
F177.69902634620667
aI0
aa(lp14
F193.81122636795044
aI0
aa(lp15
F208.9808304309845
aI0
aa(lp16
F230.62219452857971
aI0
aa(lp17
F251.86971759796143
aI0
aa(lp18
F273.30627775192261
aI0
aa(lp19
F293.09210181236267
aI0
aa(lp20
F317.96692895889282
aI0
aa(lp21
F343.62421989440918
aI0
aa(lp22
F365.6705539226532
aI0
aa(lp23
F385.65151906013489
aI0
aa(lp24
F401.99911403656006
aI0
aa(lp25
F419.68474698066711
aI0
aa(lp26
F438.4474470615387
aI0
aa(lp27
F454.90796399116516
aI0
aa(lp28
F471.76085591316223
aI0
aa(lp29
F494.22389388084412
aI0
aa(lp30
F515.84376788139343
aI0
aa(lp31
F536.08066082000732
aI0
aa(lp32
F557.36516666412354
aI0
aa(lp33
F565.47380781173706
aI0
aa(lp34
F588.60860466957092
aI0
aa(lp35
F610.23662161827087
aI0
aa(lp36
F635.17178845405579
aI0
aa(lp37
F658.40108323097229
aI0
aa(lp38
F682.15924429893494
aI0
aa(lp39
F705.00096344947815
aI0
aa(lp40
F725.34399151802063
aI0
aa(lp41
F743.49646639823914
aI0
aa(lp42
F764.52894449234009
aI0
aa(lp43
F783.7302405834198
aI0
aa(lp44
F798.60025548934937
aI0
aa(lp45
F818.63065338134766
aI0
aa(lp46
F833.22211742401123
aI0
aa(lp47
F845.57729530334473
aI0
aa(lp48
F864.108567237854
aI0
aa(lp49
F883.64825010299683
aI0
aa(lp50
F902.93565511703491
aI0
aa(lp51
F927.81101107597351
aI0
aa(lp52
F951.92531394958496
aI0
aa(lp53
F973.66789388656616
aI0
aa(lp54
F997.74199604988098
aI0
aa(lp55
F1019.7494280338287
aI0
aa(lp56
F1041.2098391056061
aI0
aa(lp57
F1064.2072019577026
aI0
aa(lp58
F1088.3857510089874
aI0
aa(lp59
F1111.9228370189667
aI0
aa(lp60
F1138.9231998920441
aI0
aa(lp61
F1164.7683248519897
aI0
aa(lp62
F1185.3069889545441
aI0
aa(lp63
F1209.8128938674927
aI1
aa(lp64
F1231.2294888496399
aI1
aa(lp65
F1250.5586738586426
aI1
aa(lp66
F1276.3284680843353
aI1
aa(lp67
F1300.8777079582214
aI1
aa(lp68
F1317.6611130237579
aI1
aa(lp69
F1332.5691781044006
aI1
aa(lp70
F1357.9021952152252
aI1
aa(lp71
F1381.6848731040955
aI1
aa(lp72
F1406.7330300807953
aI1
aa(lp73
F1429.8932130336761
aI1
aa(lp74
F1448.9317228794098
aI1
aa(lp75
F1465.8066058158875
aI1
aa(lp76
F1485.7890317440033
aI1
aa(lp77
F1502.7122757434845
aI1
aa(lp78
F1523.5739607810974
aI1
aa(lp79
F1541.3976635932922
aI1
aa(lp80
F1568.3832635879517
aI1
aa(lp81
F1586.5703225135803
aI1
aa(lp82
F1607.910418510437
aI1
aa(lp83
F1632.5628235340118
aI1
aa(lp84
F1651.2394545078278
aI1
aa(lp85
F1666.8570854663849
aI1
aa(lp86
F1689.2808754444122
aI1
aa(lp87
F1711.1837594509125
aI1
aa(lp88
F1725.7328386306763
aI1
aa(lp89
F1745.7171704769135
aI1
aa(lp90
F1765.6357405185699
aI1
aa(lp91
F1785.0331056118011
aI1
aa(lp92
F1809.0941245555878
aI1
aa(lp93
F1826.4230885505676
aI1
aa(lp94
F1843.5506167411804
aI1
aa(lp95
F1858.6665637493134
aI1
aa(lp96
F1878.5165297985077
aI1
aa(lp97
F1891.3859238624573
aI1
aa(lp98
F1913.9862518310547
aI1
aa(lp99
F1929.2228660583496
aI1
aa(lp100
F1952.1174740791321
aI1
aa(lp101
F1971.4590549468994
aI1
aa(lp102
F1988.6618599891663
aI1
aa(lp103
F2004.2955689430237
aI1
aasS'plan'
p104
Ns.