(dp1
S'search_time'
p2
(lp3
(lp4
F27.897556066513062
aI-2
aa(lp5
F77.208425998687744
aI-1
aa(lp6
F99.81571102142334
aI-1
aa(lp7
F116.71664905548096
aI-1
aa(lp8
F137.14620304107666
aI-1
aa(lp9
F160.85863924026489
aI-1
aa(lp10
F179.45759224891663
aI-1
aa(lp11
F202.02834010124207
aI-1
aa(lp12
F220.5486102104187
aI-1
aa(lp13
F241.23623824119568
aI-1
aa(lp14
F271.41317343711853
aI-1
aa(lp15
F289.69667148590088
aI-1
aa(lp16
F315.4000084400177
aI-1
aa(lp17
F330.42752552032471
aI1
aa(lp18
F353.93305158615112
aI1
aa(lp19
F377.55833959579468
aI1
aa(lp20
F397.36092853546143
aI1
aa(lp21
F409.69022154808044
aI1
aa(lp22
F434.16227960586548
aI1
aa(lp23
F464.46610260009766
aI1
aa(lp24
F492.14558053016663
aI1
aa(lp25
F516.97839164733887
aI1
aa(lp26
F533.71322154998779
aI1
aa(lp27
F546.7428765296936
aI1
aa(lp28
F567.97666645050049
aI1
aa(lp29
F592.74973344802856
aI1
aa(lp30
F611.10363245010376
aI1
aa(lp31
F638.85876750946045
aI1
aa(lp32
F663.60516762733459
aI1
aa(lp33
F676.33256959915161
aI1
aa(lp34
F694.36262774467468
aI1
aa(lp35
F716.61715078353882
aI1
aa(lp36
F748.08041667938232
aI1
aa(lp37
F763.47000646591187
aI1
aa(lp38
F783.9183235168457
aI1
aa(lp39
F810.03061246871948
aI1
aa(lp40
F824.76248836517334
aI1
aa(lp41
F842.75615429878235
aI1
aa(lp42
F863.20506429672241
aI1
aa(lp43
F881.32583022117615
aI1
aa(lp44
F899.44424223899841
aI1
aa(lp45
F915.82377028465271
aI1
aa(lp46
F933.27397036552429
aI1
aa(lp47
F943.92746520042419
aI1
aa(lp48
F982.98909521102905
aI1
aa(lp49
F1020.8365399837494
aI1
aa(lp50
F1046.6368210315704
aI1
aa(lp51
F1063.5389890670776
aI1
aa(lp52
F1090.9141829013824
aI1
aa(lp53
F1107.2813539505005
aI1
aa(lp54
F1124.959981918335
aI1
aa(lp55
F1140.1531248092651
aI1
aa(lp56
F1156.0425946712494
aI1
aa(lp57
F1170.361302614212
aI1
aa(lp58
F1188.434743642807
aI1
aa(lp59
F1205.9050288200378
aI1
aa(lp60
F1222.2926216125488
aI1
aa(lp61
F1237.5286314487457
aI1
aa(lp62
F1257.44855260849
aI1
aa(lp63
F1290.9961657524109
aI1
aa(lp64
F1312.484534740448
aI1
aa(lp65
F1330.6837887763977
aI1
aa(lp66
F1352.061155796051
aI1
aa(lp67
F1369.5321438312531
aI1
aa(lp68
F1395.9468288421631
aI1
aa(lp69
F1415.8437397480011
aI1
aa(lp70
F1439.1225638389587
aI1
aa(lp71
F1460.2198076248169
aI1
aa(lp72
F1480.066707611084
aI1
aa(lp73
F1504.3850066661835
aI1
aa(lp74
F1519.4712107181549
aI1
aa(lp75
F1530.4859898090363
aI1
aa(lp76
F1553.9751789569855
aI1
aa(lp77
F1580.7063097953796
aI1
aa(lp78
F1600.3637738227844
aI1
aa(lp79
F1616.5185468196869
aI1
aa(lp80
F1651.9093668460846
aI1
aa(lp81
F1672.5946438312531
aI1
aa(lp82
F1703.5780608654022
aI1
aa(lp83
F1724.4374268054962
aI1
aa(lp84
F1749.5533466339111
aI1
aa(lp85
F1775.5788066387177
aI1
aa(lp86
F1802.3427815437317
aI1
aa(lp87
F1819.2044947147369
aI1
aa(lp88
F1837.4396257400513
aI1
aa(lp89
F1850.7767539024353
aI1
aa(lp90
F1874.7391228675842
aI1
aa(lp91
F1890.5413408279419
aI1
aa(lp92
F1919.8704898357391
aI1
aa(lp93
F1932.04696393013
aI1
aa(lp94
F1959.7983400821686
aI1
aa(lp95
F1987.6462481021881
aI1
aa(lp96
F2008.0662331581116
aI1
aa(lp97
F2026.6160800457001
aI1
aa(lp98
F2048.2166540622711
aI1
aa(lp99
F2069.1681141853333
aI1
aa(lp100
F2086.1139810085297
aI1
aa(lp101
F2097.2869548797607
aI1
aa(lp102
F2118.0324559211731
aI1
aa(lp103
F2144.3313257694244
aI1
aasS'plan'
p104
Ns.