(dp1
S'search_time'
p2
(lp3
(lp4
F21.534456014633179
aI-2
aa(lp5
F42.005915880203247
aI-2
aa(lp6
F69.786818981170654
aI-2
aa(lp7
F99.435021162033081
aI-2
aa(lp8
F130.45732402801514
aI-2
aa(lp9
F160.07999110221863
aI-2
aa(lp10
F178.10351610183716
aI-2
aa(lp11
F194.85019087791443
aI-2
aa(lp12
F212.17485570907593
aI-2
aa(lp13
F228.02044582366943
aI-2
aa(lp14
F250.56161594390869
aI-2
aa(lp15
F272.58220601081848
aI-2
aa(lp16
F286.76873922348022
aI-2
aa(lp17
F299.71172738075256
aI-2
aa(lp18
F331.72941040992737
aI-2
aa(lp19
F360.85031938552856
aI-2
aa(lp20
F388.66306352615356
aI-2
aa(lp21
F428.14360952377319
aI-1
aa(lp22
F453.75631356239319
aI-1
aa(lp23
F475.19764947891235
aI-1
aa(lp24
F503.46047449111938
aI-1
aa(lp25
F526.94957947731018
aI-1
aa(lp26
F541.76824450492859
aI-1
aa(lp27
F577.69160652160645
aI-1
aa(lp28
F608.00912165641785
aI-1
aa(lp29
F633.02820873260498
aI-1
aa(lp30
F663.92556166648865
aI-1
aa(lp31
F685.41995763778687
aI-1
aa(lp32
F714.35285186767578
aI-1
aa(lp33
F734.56268382072449
aI-1
aa(lp34
F752.7552227973938
aI-1
aa(lp35
F783.33102560043335
aI0
aa(lp36
F817.85588669776917
aI0
aa(lp37
F834.22874164581299
aI0
aa(lp38
F863.28811168670654
aI0
aa(lp39
F884.44117283821106
aI0
aa(lp40
F908.26050901412964
aI0
aa(lp41
F938.98531913757324
aI0
aa(lp42
F956.13356328010559
aI0
aa(lp43
F981.27919936180115
aI0
aa(lp44
F1004.9335453510284
aI0
aa(lp45
F1025.9683403968811
aI0
aa(lp46
F1047.9748582839966
aI0
aa(lp47
F1074.6808791160583
aI0
aa(lp48
F1091.6660001277924
aI0
aa(lp49
F1116.195739030838
aI0
aa(lp50
F1142.6034331321716
aI0
aa(lp51
F1162.240403175354
aI0
aa(lp52
F1183.9249770641327
aI0
aa(lp53
F1209.1414029598236
aI0
aa(lp54
F1239.9972839355469
aI0
aa(lp55
F1264.1493670940399
aI0
aa(lp56
F1292.4557440280914
aI0
aa(lp57
F1316.9430370330811
aI0
aa(lp58
F1347.0886158943176
aI0
aa(lp59
F1365.0461180210114
aI0
aa(lp60
F1387.200581073761
aI0
aa(lp61
F1406.3085741996765
aI0
aa(lp62
F1428.5757482051849
aI0
aa(lp63
F1449.0470912456512
aI0
aa(lp64
F1479.5428593158722
aI0
aa(lp65
F1504.8085911273956
aI0
aa(lp66
F1530.9973452091217
aI0
aa(lp67
F1557.9715342521667
aI0
aa(lp68
F1583.9897773265839
aI0
aa(lp69
F1606.5708303451538
aI0
aa(lp70
F1632.8739154338837
aI0
aa(lp71
F1655.502096414566
aI0
aa(lp72
F1682.2743804454803
aI0
aa(lp73
F1701.1333844661713
aI0
aa(lp74
F1730.3851644992828
aI0
aa(lp75
F1759.1496844291687
aI0
aa(lp76
F1780.7685124874115
aI0
aa(lp77
F1800.7065215110779
aI0
aa(lp78
F1834.8394515514374
aI0
aa(lp79
F1853.448748588562
aI0
aa(lp80
F1877.8846774101257
aI0
aa(lp81
F1901.6257183551788
aI0
aa(lp82
F1942.0717043876648
aI0
aa(lp83
F1962.0713374614716
aI0
aa(lp84
F1987.3533434867859
aI0
aa(lp85
F2013.8266525268555
aI0
aa(lp86
F2028.7860825061798
aI0
aa(lp87
F2043.3574683666229
aI0
aa(lp88
F2061.6154243946075
aI0
aa(lp89
F2093.6998224258423
aI0
aa(lp90
F2116.6548504829407
aI0
aa(lp91
F2137.2766814231873
aI0
aa(lp92
F2158.3832683563232
aI0
aa(lp93
F2179.3695912361145
aI0
aa(lp94
F2203.2208442687988
aI0
aa(lp95
F2235.2503473758698
aI0
aa(lp96
F2255.0658764839172
aI0
aa(lp97
F2270.6502456665039
aI0
aa(lp98
F2292.1860446929932
aI0
aa(lp99
F2308.5534715652466
aI0
aa(lp100
F2344.8058445453644
aI0
aa(lp101
F2387.8166046142578
aI0
aa(lp102
F2414.1502597332001
aI0
aa(lp103
F2433.8158159255981
aI0
aasS'plan'
p104
Ns.