(dp1
S'search_time'
p2
(lp3
(lp4
F26.828399181365967
aI-2
aa(lp5
F53.337831258773804
aI-2
aa(lp6
F75.2977454662323
aI-1
aa(lp7
F95.373003482818604
aI-1
aa(lp8
F113.68403649330139
aI-1
aa(lp9
F138.12568354606628
aI-1
aa(lp10
F164.37388849258423
aI-1
aa(lp11
F184.8432445526123
aI-1
aa(lp12
F215.55204558372498
aI-1
aa(lp13
F245.60974669456482
aI-1
aa(lp14
F262.54859781265259
aI-1
aa(lp15
F291.18394589424133
aI-1
aa(lp16
F313.92341589927673
aI-1
aa(lp17
F335.32042074203491
aI-1
aa(lp18
F358.56977868080139
aI-1
aa(lp19
F397.2610936164856
aI0
aa(lp20
F418.13878440856934
aI0
aa(lp21
F438.45946145057678
aI0
aa(lp22
F464.72139263153076
aI0
aa(lp23
F490.02611064910889
aI0
aa(lp24
F516.77807354927063
aI0
aa(lp25
F541.28545141220093
aI0
aa(lp26
F572.46130228042603
aI0
aa(lp27
F594.70794630050659
aI0
aa(lp28
F620.17545819282532
aI0
aa(lp29
F641.59668612480164
aI0
aa(lp30
F671.19141817092896
aI0
aa(lp31
F695.38655233383179
aI0
aa(lp32
F721.03916430473328
aI0
aa(lp33
F743.30725121498108
aI0
aa(lp34
F766.93038034439087
aI0
aa(lp35
F786.27148032188416
aI0
aa(lp36
F812.60592222213745
aI0
aa(lp37
F836.63756227493286
aI0
aa(lp38
F863.21330428123474
aI0
aa(lp39
F883.80290722846985
aI0
aa(lp40
F917.05895614624023
aI0
aa(lp41
F937.43982100486755
aI1
aa(lp42
F954.10667586326599
aI1
aa(lp43
F977.31822896003723
aI1
aa(lp44
F995.91067409515381
aI1
aa(lp45
F1011.7370331287384
aI1
aa(lp46
F1046.1954972743988
aI1
aa(lp47
F1063.4208512306213
aI1
aa(lp48
F1091.2976024150848
aI1
aa(lp49
F1106.847870349884
aI1
aa(lp50
F1136.5851402282715
aI1
aa(lp51
F1152.663357257843
aI1
aa(lp52
F1174.3932430744171
aI1
aa(lp53
F1194.9195621013641
aI1
aa(lp54
F1215.8644440174103
aI1
aa(lp55
F1234.0873939990997
aI1
aa(lp56
F1263.2247920036316
aI1
aa(lp57
F1281.3650460243225
aI1
aa(lp58
F1314.5180640220642
aI1
aa(lp59
F1347.6268439292908
aI1
aa(lp60
F1374.7520010471344
aI1
aa(lp61
F1399.8682510852814
aI1
aa(lp62
F1419.8773300647736
aI1
aa(lp63
F1445.5140991210938
aI1
aa(lp64
F1467.8800749778748
aI1
aa(lp65
F1491.9495968818665
aI1
aa(lp66
F1525.6644718647003
aI1
aa(lp67
F1559.0378439426422
aI1
aa(lp68
F1582.3683748245239
aI1
aa(lp69
F1604.9250886440277
aI1
aa(lp70
F1623.0108516216278
aI1
aa(lp71
F1642.9566006660461
aI1
aa(lp72
F1669.0753357410431
aI1
aa(lp73
F1692.9756166934967
aI1
aa(lp74
F1724.8775947093964
aI1
aa(lp75
F1743.4550738334656
aI1
aa(lp76
F1760.8016188144684
aI1
aa(lp77
F1775.3726279735565
aI1
aa(lp78
F1799.6974830627441
aI1
aa(lp79
F1817.5119190216064
aI1
aa(lp80
F1847.147383928299
aI1
aa(lp81
F1878.6680688858032
aI1
aa(lp82
F1907.2743847370148
aI1
aa(lp83
F1937.0776228904724
aI1
aa(lp84
F1959.4164860248566
aI1
aa(lp85
F1978.6915440559387
aI1
aa(lp86
F2001.7766411304474
aI1
aa(lp87
F2022.2206101417542
aI1
aa(lp88
F2047.2811551094055
aI1
aa(lp89
F2070.2056269645691
aI1
aa(lp90
F2095.0633430480957
aI1
aa(lp91
F2119.8393399715424
aI1
aa(lp92
F2143.613128900528
aI1
aa(lp93
F2166.3732447624207
aI1
aa(lp94
F2191.3715567588806
aI1
aa(lp95
F2214.4616937637329
aI1
aa(lp96
F2247.331152677536
aI1
aa(lp97
F2276.0020177364349
aI1
aa(lp98
F2303.3121356964111
aI1
aa(lp99
F2328.3498525619507
aI1
aa(lp100
F2346.3842453956604
aI1
aa(lp101
F2362.8971543312073
aI1
aa(lp102
F2387.9179654121399
aI1
aa(lp103
F2414.833327293396
aI1
aasS'plan'
p104
Ns.