(dp1
S'search_time'
p2
(lp3
(lp4
F21.105479955673218
aI-2
aa(lp5
F40.259476900100708
aI-2
aa(lp6
F62.143193960189819
aI-2
aa(lp7
F82.560107946395874
aI-2
aa(lp8
F101.64783883094788
aI-1
aa(lp9
F118.84364676475525
aI-1
aa(lp10
F140.1783287525177
aI-1
aa(lp11
F165.08878874778748
aI-1
aa(lp12
F179.95615577697754
aI0
aa(lp13
F192.0699028968811
aI0
aa(lp14
F206.45858407020569
aI0
aa(lp15
F231.74061107635498
aI0
aa(lp16
F246.85872101783752
aI0
aa(lp17
F267.93268299102783
aI0
aa(lp18
F290.05554294586182
aI0
aa(lp19
F308.44033813476562
aI0
aa(lp20
F322.81720328330994
aI0
aa(lp21
F335.61641836166382
aI0
aa(lp22
F363.50315427780151
aI0
aa(lp23
F389.58789229393005
aI0
aa(lp24
F403.12912535667419
aI0
aa(lp25
F420.64072132110596
aI0
aa(lp26
F437.7203483581543
aI0
aa(lp27
F450.99672842025757
aI0
aa(lp28
F476.60455942153931
aI0
aa(lp29
F493.97800540924072
aI0
aa(lp30
F516.16793441772461
aI0
aa(lp31
F536.5094473361969
aI0
aa(lp32
F562.67043733596802
aI0
aa(lp33
F586.05727434158325
aI0
aa(lp34
F606.87616515159607
aI0
aa(lp35
F631.39600014686584
aI0
aa(lp36
F649.50312399864197
aI0
aa(lp37
F665.11974883079529
aI0
aa(lp38
F691.71199679374695
aI0
aa(lp39
F715.36495280265808
aI0
aa(lp40
F736.6280996799469
aI0
aa(lp41
F753.64139366149902
aI0
aa(lp42
F776.91275954246521
aI0
aa(lp43
F798.00730466842651
aI0
aa(lp44
F814.99967074394226
aI0
aa(lp45
F835.25066471099854
aI0
aa(lp46
F860.49090981483459
aI0
aa(lp47
F887.57947182655334
aI0
aa(lp48
F910.07972073554993
aI0
aa(lp49
F928.71873259544373
aI0
aa(lp50
F946.23487663269043
aI0
aa(lp51
F961.85025668144226
aI0
aa(lp52
F981.48296856880188
aI0
aa(lp53
F995.27687764167786
aI0
aa(lp54
F1021.7975876331329
aI0
aa(lp55
F1042.5679485797882
aI0
aa(lp56
F1056.8735575675964
aI0
aa(lp57
F1080.9133105278015
aI0
aa(lp58
F1104.4857125282288
aI0
aa(lp59
F1116.3381996154785
aI0
aa(lp60
F1140.8001155853271
aI0
aa(lp61
F1162.3471615314484
aI0
aa(lp62
F1186.023862361908
aI0
aa(lp63
F1216.286167383194
aI0
aa(lp64
F1241.7239673137665
aI0
aa(lp65
F1265.8239824771881
aI0
aa(lp66
F1283.8506653308868
aI0
aa(lp67
F1301.8324873447418
aI0
aa(lp68
F1327.3674564361572
aI0
aa(lp69
F1354.0854525566101
aI0
aa(lp70
F1376.4065194129944
aI0
aa(lp71
F1396.962215423584
aI0
aa(lp72
F1422.0871152877808
aI0
aa(lp73
F1444.980598449707
aI0
aa(lp74
F1459.085907459259
aI0
aa(lp75
F1477.6525545120239
aI0
aa(lp76
F1499.1204986572266
aI0
aa(lp77
F1515.6019806861877
aI0
aa(lp78
F1534.1577515602112
aI0
aa(lp79
F1545.8008015155792
aI0
aa(lp80
F1565.5137915611267
aI0
aa(lp81
F1588.2162873744965
aI0
aa(lp82
F1608.9604005813599
aI0
aa(lp83
F1630.4593496322632
aI1
aa(lp84
F1651.5878546237946
aI1
aa(lp85
F1669.6977996826172
aI1
aa(lp86
F1690.9656846523285
aI1
aa(lp87
F1710.2226417064667
aI1
aa(lp88
F1730.2958986759186
aI1
aa(lp89
F1748.0041055679321
aI1
aa(lp90
F1772.876437664032
aI1
aa(lp91
F1791.1872365474701
aI1
aa(lp92
F1817.0117344856262
aI1
aa(lp93
F1840.0827994346619
aI1
aa(lp94
F1860.4733173847198
aI1
aa(lp95
F1885.6346263885498
aI1
aa(lp96
F1909.2182042598724
aI1
aa(lp97
F1933.5747222900391
aI1
aa(lp98
F1958.1979882717133
aI1
aa(lp99
F1980.8771731853485
aI1
aa(lp100
F2007.6835541725159
aI1
aa(lp101
F2031.813853263855
aI1
aa(lp102
F2050.6196594238281
aI1
aa(lp103
F2073.1734085083008
aI1
aasS'plan'
p104
Ns.