(dp1
S'search_time'
p2
(lp3
(lp4
F15.234698057174683
aI-2
aa(lp5
F29.771553039550781
aI-2
aa(lp6
F46.798459053039551
aI-2
aa(lp7
F62.689867973327637
aI-2
aa(lp8
F80.729744911193848
aI-2
aa(lp9
F98.15015697479248
aI-2
aa(lp10
F118.35125207901001
aI0
aa(lp11
F135.67179989814758
aI0
aa(lp12
F154.97413682937622
aI0
aa(lp13
F171.55579996109009
aI0
aa(lp14
F192.84919595718384
aI0
aa(lp15
F210.02463579177856
aI0
aa(lp16
F227.49464058876038
aI0
aa(lp17
F243.62105059623718
aI0
aa(lp18
F263.01540446281433
aI0
aa(lp19
F282.40447235107422
aI0
aa(lp20
F302.53278136253357
aI0
aa(lp21
F320.44371128082275
aI0
aa(lp22
F338.24040746688843
aI0
aa(lp23
F357.0304434299469
aI0
aa(lp24
F375.22674250602722
aI0
aa(lp25
F390.83790159225464
aI0
aa(lp26
F408.21396970748901
aI0
aa(lp27
F426.49081563949585
aI0
aa(lp28
F441.56307554244995
aI0
aa(lp29
F456.90134358406067
aI0
aa(lp30
F470.07476258277893
aI0
aa(lp31
F482.66150975227356
aI0
aa(lp32
F497.34425663948059
aI0
aa(lp33
F510.27807879447937
aI0
aa(lp34
F529.69649791717529
aI0
aa(lp35
F544.83425903320312
aI0
aa(lp36
F563.05796599388123
aI0
aa(lp37
F575.4111750125885
aI0
aa(lp38
F594.339515209198
aI0
aa(lp39
F613.95937919616699
aI0
aa(lp40
F641.06969523429871
aI0
aa(lp41
F654.52098941802979
aI0
aa(lp42
F674.01156949996948
aI0
aa(lp43
F688.16076445579529
aI0
aa(lp44
F704.52245831489563
aI0
aa(lp45
F717.20660328865051
aI0
aa(lp46
F735.56695747375488
aI0
aa(lp47
F763.22332954406738
aI0
aa(lp48
F781.59796237945557
aI0
aa(lp49
F797.35633730888367
aI0
aa(lp50
F812.68119025230408
aI0
aa(lp51
F812.80989909172058
aI0
aa(lp52
F834.10861706733704
aI1
aa(lp53
F850.7844660282135
aI1
aa(lp54
F867.18307113647461
aI1
aa(lp55
F886.03116106987
aI1
aa(lp56
F908.68844819068909
aI1
aa(lp57
F926.16893315315247
aI1
aa(lp58
F940.34634923934937
aI1
aa(lp59
F956.14477825164795
aI1
aa(lp60
F977.80395722389221
aI1
aa(lp61
F993.39576411247253
aI1
aa(lp62
F1011.3988881111145
aI1
aa(lp63
F1026.1559112071991
aI1
aa(lp64
F1048.4715042114258
aI1
aa(lp65
F1066.9106912612915
aI1
aa(lp66
F1088.0418083667755
aI1
aa(lp67
F1107.6102573871613
aI1
aa(lp68
F1127.8786044120789
aI1
aa(lp69
F1144.3695013523102
aI1
aa(lp70
F1162.6403014659882
aI1
aa(lp71
F1179.4184556007385
aI1
aa(lp72
F1192.945232629776
aI1
aa(lp73
F1211.8955166339874
aI1
aa(lp74
F1233.08145570755
aI1
aa(lp75
F1247.6001937389374
aI1
aa(lp76
F1266.1337118148804
aI1
aa(lp77
F1282.0225887298584
aI1
aa(lp78
F1299.9092206954956
aI1
aa(lp79
F1319.420215845108
aI1
aa(lp80
F1336.0937917232513
aI1
aa(lp81
F1350.8873536586761
aI1
aa(lp82
F1376.0807635784149
aI1
aa(lp83
F1390.5757336616516
aI1
aa(lp84
F1409.0388088226318
aI1
aa(lp85
F1423.7202749252319
aI1
aa(lp86
F1440.3462600708008
aI1
aa(lp87
F1459.4864420890808
aI1
aa(lp88
F1477.72398686409
aI1
aa(lp89
F1492.8782370090485
aI1
aa(lp90
F1510.6155319213867
aI1
aa(lp91
F1525.7905039787292
aI1
aa(lp92
F1544.7323129177094
aI1
aa(lp93
F1566.7025170326233
aI1
aa(lp94
F1582.5490100383759
aI1
aa(lp95
F1601.4199349880219
aI1
aa(lp96
F1617.9083640575409
aI1
aa(lp97
F1631.5468361377716
aI1
aa(lp98
F1651.7517871856689
aI1
aa(lp99
F1665.6485643386841
aI1
aa(lp100
F1686.4606983661652
aI1
aa(lp101
F1699.6194312572479
aI1
aa(lp102
F1718.1912581920624
aI1
aa(lp103
F1733.0718121528625
aI1
aasS'plan'
p104
Ns.