(dp1
S'search_time'
p2
(lp3
(lp4
F27.077149868011475
aI-2
aa(lp5
F52.640007734298706
aI-2
aa(lp6
F79.609914779663086
aI-2
aa(lp7
F106.97437787055969
aI-2
aa(lp8
F121.32835078239441
aI-1
aa(lp9
F134.14051580429077
aI-1
aa(lp10
F154.12558794021606
aI-1
aa(lp11
F170.16133880615234
aI-1
aa(lp12
F188.37197184562683
aI-1
aa(lp13
F205.05363368988037
aI-1
aa(lp14
F227.73005867004395
aI-1
aa(lp15
F248.97521471977234
aI-1
aa(lp16
F270.4258406162262
aI-1
aa(lp17
F286.6095826625824
aI-1
aa(lp18
F308.35489177703857
aI-1
aa(lp19
F327.74173879623413
aI-1
aa(lp20
F352.05739665031433
aI-1
aa(lp21
F367.4753737449646
aI-1
aa(lp22
F387.20430588722229
aI-1
aa(lp23
F404.15312504768372
aI-1
aa(lp24
F432.59838199615479
aI-1
aa(lp25
F457.1816668510437
aI-1
aa(lp26
F478.18530893325806
aI-1
aa(lp27
F498.61566472053528
aI-1
aa(lp28
F526.50919270515442
aI-1
aa(lp29
F546.90461587905884
aI-1
aa(lp30
F566.85432696342468
aI-1
aa(lp31
F585.16195893287659
aI-1
aa(lp32
F603.96171379089355
aI-1
aa(lp33
F621.57006573677063
aI-1
aa(lp34
F651.99310660362244
aI-1
aa(lp35
F679.09510254859924
aI0
aa(lp36
F710.43928742408752
aI0
aa(lp37
F732.62848854064941
aI0
aa(lp38
F761.36795449256897
aI0
aa(lp39
F787.14332342147827
aI0
aa(lp40
F813.78912138938904
aI0
aa(lp41
F838.54393243789673
aI0
aa(lp42
F864.10736536979675
aI0
aa(lp43
F888.60554337501526
aI0
aa(lp44
F905.6295313835144
aI0
aa(lp45
F928.28567743301392
aI0
aa(lp46
F940.88605141639709
aI0
aa(lp47
F968.32317233085632
aI0
aa(lp48
F987.27138614654541
aI0
aa(lp49
F1013.2228512763977
aI0
aa(lp50
F1036.6171140670776
aI0
aa(lp51
F1062.7681119441986
aI0
aa(lp52
F1078.6766879558563
aI0
aa(lp53
F1102.6565470695496
aI0
aa(lp54
F1131.1305661201477
aI0
aa(lp55
F1147.0157392024994
aI0
aa(lp56
F1176.0641281604767
aI0
aa(lp57
F1198.2220859527588
aI0
aa(lp58
F1220.4026191234589
aI0
aa(lp59
F1242.0348160266876
aI0
aa(lp60
F1264.6317689418793
aI0
aa(lp61
F1290.3113758563995
aI0
aa(lp62
F1316.588889837265
aI0
aa(lp63
F1339.231871843338
aI0
aa(lp64
F1362.9376068115234
aI0
aa(lp65
F1391.3669908046722
aI0
aa(lp66
F1419.1634788513184
aI0
aa(lp67
F1436.8926546573639
aI0
aa(lp68
F1459.3567357063293
aI0
aa(lp69
F1479.8585276603699
aI0
aa(lp70
F1508.4937345981598
aI0
aa(lp71
F1535.2589905261993
aI0
aa(lp72
F1561.2739155292511
aI0
aa(lp73
F1587.1022055149078
aI0
aa(lp74
F1613.9628245830536
aI0
aa(lp75
F1631.9312953948975
aI0
aa(lp76
F1650.1288964748383
aI0
aa(lp77
F1667.2318322658539
aI0
aa(lp78
F1692.6908392906189
aI0
aa(lp79
F1718.6656603813171
aI0
aa(lp80
F1738.1719493865967
aI0
aa(lp81
F1764.2057135105133
aI0
aa(lp82
F1783.7422814369202
aI0
aa(lp83
F1815.6658043861389
aI0
aa(lp84
F1838.0879604816437
aI0
aa(lp85
F1864.3178095817566
aI0
aa(lp86
F1885.140989780426
aI0
aa(lp87
F1903.5856428146362
aI0
aa(lp88
F1928.3153386116028
aI0
aa(lp89
F1951.4083287715912
aI0
aa(lp90
F1978.1183207035065
aI0
aa(lp91
F2001.1873388290405
aI0
aa(lp92
F2020.5143008232117
aI0
aa(lp93
F2036.9781868457794
aI0
aa(lp94
F2054.1460149288177
aI0
aa(lp95
F2073.6943919658661
aI0
aa(lp96
F2100.4709169864655
aI0
aa(lp97
F2116.1223130226135
aI0
aa(lp98
F2139.2830989360809
aI0
aa(lp99
F2163.0870609283447
aI0
aa(lp100
F2188.1248698234558
aI0
aa(lp101
F2212.3245396614075
aI0
aa(lp102
F2232.1993336677551
aI0
aa(lp103
F2253.8808567523956
aI0
aasS'plan'
p104
Ns.