(dp1
S'search_time'
p2
(lp3
(lp4
F13.96153712272644
aI-1
aa(lp5
F26.658887147903442
aI-1
aa(lp6
F43.538315296173096
aI-1
aa(lp7
F68.065952301025391
aI-1
aa(lp8
F86.993938207626343
aI-1
aa(lp9
F101.73588728904724
aI-1
aa(lp10
F122.70205640792847
aI-1
aa(lp11
F139.61833429336548
aI-1
aa(lp12
F159.5741274356842
aI-1
aa(lp13
F175.27438139915466
aI-1
aa(lp14
F193.00419640541077
aI-1
aa(lp15
F208.92243838310242
aI-1
aa(lp16
F226.8254714012146
aI-1
aa(lp17
F243.42258429527283
aI-1
aa(lp18
F259.8729293346405
aI0
aa(lp19
F273.62551212310791
aI0
aa(lp20
F287.5350170135498
aI0
aa(lp21
F302.58512210845947
aI0
aa(lp22
F323.43016505241394
aI0
aa(lp23
F336.02008819580078
aI0
aa(lp24
F352.97989106178284
aI0
aa(lp25
F372.22168827056885
aI0
aa(lp26
F396.2575044631958
aI0
aa(lp27
F415.45668649673462
aI0
aa(lp28
F432.08268857002258
aI0
aa(lp29
F449.78436374664307
aI0
aa(lp30
F469.89616775512695
aI0
aa(lp31
F487.31181478500366
aI0
aa(lp32
F507.83818864822388
aI0
aa(lp33
F526.66967463493347
aI0
aa(lp34
F551.83918952941895
aI0
aa(lp35
F567.68833160400391
aI0
aa(lp36
F587.53315663337708
aI0
aa(lp37
F608.60192465782166
aI0
aa(lp38
F630.53019261360168
aI0
aa(lp39
F654.30848240852356
aI0
aa(lp40
F679.38315939903259
aI0
aa(lp41
F702.59946322441101
aI0
aa(lp42
F726.98701739311218
aI0
aa(lp43
F745.77688956260681
aI0
aa(lp44
F762.56494140625
aI0
aa(lp45
F778.35719227790833
aI0
aa(lp46
F792.94743418693542
aI0
aa(lp47
F813.66063022613525
aI0
aa(lp48
F834.18367409706116
aI0
aa(lp49
F852.01944208145142
aI0
aa(lp50
F875.61261701583862
aI0
aa(lp51
F894.18605709075928
aI0
aa(lp52
F909.53220510482788
aI0
aa(lp53
F923.79402804374695
aI0
aa(lp54
F941.6566321849823
aI0
aa(lp55
F957.83972430229187
aI0
aa(lp56
F986.35827350616455
aI0
aa(lp57
F1011.7597763538361
aI0
aa(lp58
F1028.5791003704071
aI0
aa(lp59
F1041.7917943000793
aI0
aa(lp60
F1055.4359393119812
aI0
aa(lp61
F1079.3953373432159
aI0
aa(lp62
F1095.246853351593
aI0
aa(lp63
F1110.2760803699493
aI0
aa(lp64
F1131.9476253986359
aI0
aa(lp65
F1152.0095374584198
aI0
aa(lp66
F1167.8649425506592
aI0
aa(lp67
F1186.2770025730133
aI0
aa(lp68
F1204.0838494300842
aI0
aa(lp69
F1220.3701436519623
aI0
aa(lp70
F1241.910918712616
aI0
aa(lp71
F1261.094381570816
aI0
aa(lp72
F1283.2034964561462
aI0
aa(lp73
F1297.8198354244232
aI0
aa(lp74
F1310.4621164798737
aI0
aa(lp75
F1330.9461064338684
aI0
aa(lp76
F1349.103241443634
aI0
aa(lp77
F1360.2312126159668
aI0
aa(lp78
F1381.483948469162
aI0
aa(lp79
F1401.6284534931183
aI0
aa(lp80
F1428.2886023521423
aI1
aa(lp81
F1451.5457584857941
aI1
aa(lp82
F1471.2758016586304
aI1
aa(lp83
F1493.3911826610565
aI1
aa(lp84
F1514.451991558075
aI1
aa(lp85
F1529.8281376361847
aI1
aa(lp86
F1545.5261425971985
aI1
aa(lp87
F1566.7857434749603
aI1
aa(lp88
F1589.9569714069366
aI1
aa(lp89
F1608.2866973876953
aI1
aa(lp90
F1626.5067493915558
aI1
aa(lp91
F1643.3589265346527
aI1
aa(lp92
F1662.3040585517883
aI1
aa(lp93
F1684.0207755565643
aI1
aa(lp94
F1700.9559786319733
aI1
aa(lp95
F1718.6770606040955
aI1
aa(lp96
F1743.28156042099
aI1
aa(lp97
F1765.6451535224915
aI1
aa(lp98
F1781.5563893318176
aI1
aa(lp99
F1805.5306844711304
aI1
aa(lp100
F1828.5440864562988
aI1
aa(lp101
F1850.1568224430084
aI1
aa(lp102
F1865.3424315452576
aI1
aa(lp103
F1886.8462796211243
aI1
aasS'plan'
p104
Ns.