(dp1
S'search_time'
p2
(lp3
(lp4
F24.669229030609131
aI-1
aa(lp5
F47.567417144775391
aI-1
aa(lp6
F73.631217241287231
aI-1
aa(lp7
F98.370392084121704
aI-1
aa(lp8
F112.93226099014282
aI-1
aa(lp9
F127.0969409942627
aI-1
aa(lp10
F144.22593212127686
aI-1
aa(lp11
F160.74114012718201
aI-1
aa(lp12
F184.93632912635803
aI-1
aa(lp13
F209.24053812026978
aI-1
aa(lp14
F224.87088704109192
aI-1
aa(lp15
F238.38406705856323
aI-1
aa(lp16
F253.06124401092529
aI-1
aa(lp17
F265.42349696159363
aI-1
aa(lp18
F284.87391591072083
aI-1
aa(lp19
F302.94632482528687
aI-1
aa(lp20
F320.48115396499634
aI-1
aa(lp21
F342.56775498390198
aI-1
aa(lp22
F367.75720191001892
aI-1
aa(lp23
F390.96707391738892
aI-1
aa(lp24
F411.51288199424744
aI-1
aa(lp25
F432.19972395896912
aI-1
aa(lp26
F451.31327390670776
aI-1
aa(lp27
F468.7239727973938
aI-1
aa(lp28
F491.97738480567932
aI-1
aa(lp29
F509.31011486053467
aI-1
aa(lp30
F532.64439988136292
aI-1
aa(lp31
F548.91334080696106
aI-1
aa(lp32
F566.510666847229
aI-1
aa(lp33
F581.41102170944214
aI-1
aa(lp34
F603.45887160301208
aI-1
aa(lp35
F620.24029159545898
aI-1
aa(lp36
F644.9326765537262
aI0
aa(lp37
F665.26603555679321
aI0
aa(lp38
F682.82269644737244
aI0
aa(lp39
F698.40063548088074
aI0
aa(lp40
F721.66086435317993
aI0
aa(lp41
F743.07270431518555
aI0
aa(lp42
F766.0800633430481
aI0
aa(lp43
F785.53451037406921
aI0
aa(lp44
F809.35180330276489
aI0
aa(lp45
F831.56185936927795
aI0
aa(lp46
F858.55596232414246
aI0
aa(lp47
F881.53861141204834
aI0
aa(lp48
F896.09406733512878
aI0
aa(lp49
F908.54858541488647
aI0
aa(lp50
F930.21422243118286
aI0
aa(lp51
F946.85843324661255
aI0
aa(lp52
F961.52537536621094
aI0
aa(lp53
F974.10575318336487
aI0
aa(lp54
F996.71011519432068
aI0
aa(lp55
F1019.3040912151337
aI0
aa(lp56
F1042.7357041835785
aI0
aa(lp57
F1064.0312902927399
aI0
aa(lp58
F1078.9591703414917
aI0
aa(lp59
F1100.6519362926483
aI0
aa(lp60
F1120.828417301178
aI0
aa(lp61
F1140.077454328537
aI0
aa(lp62
F1164.9632422924042
aI0
aa(lp63
F1183.2667284011841
aI0
aa(lp64
F1206.0782654285431
aI0
aa(lp65
F1226.9310395717621
aI0
aa(lp66
F1244.3775885105133
aI0
aa(lp67
F1259.5229206085205
aI0
aa(lp68
F1284.9855225086212
aI0
aa(lp69
F1310.2385406494141
aI0
aa(lp70
F1332.1380026340485
aI0
aa(lp71
F1351.1814017295837
aI0
aa(lp72
F1371.3937757015228
aI0
aa(lp73
F1389.4871497154236
aI0
aa(lp74
F1411.3791687488556
aI0
aa(lp75
F1434.6488387584686
aI0
aa(lp76
F1461.3540577888489
aI0
aa(lp77
F1480.2474915981293
aI0
aa(lp78
F1497.0926547050476
aI0
aa(lp79
F1515.7770466804504
aI0
aa(lp80
F1537.2563445568085
aI0
aa(lp81
F1554.4192736148834
aI0
aa(lp82
F1575.7786304950714
aI0
aa(lp83
F1595.7419095039368
aI0
aa(lp84
F1614.8855164051056
aI0
aa(lp85
F1632.6426334381104
aI0
aa(lp86
F1649.830349445343
aI0
aa(lp87
F1667.9154675006866
aI0
aa(lp88
F1684.0309815406799
aI0
aa(lp89
F1705.5781645774841
aI0
aa(lp90
F1721.6050884723663
aI0
aa(lp91
F1740.8575923442841
aI0
aa(lp92
F1766.3066761493683
aI0
aa(lp93
F1790.5265340805054
aI0
aa(lp94
F1812.0365900993347
aI0
aa(lp95
F1831.3410520553589
aI0
aa(lp96
F1856.6686160564423
aI0
aa(lp97
F1874.5573761463165
aI0
aa(lp98
F1897.6781222820282
aI0
aa(lp99
F1919.9297442436218
aI0
aa(lp100
F1942.4452712535858
aI0
aa(lp101
F1958.0037243366241
aI0
aa(lp102
F1977.0762615203857
aI0
aa(lp103
F1994.5851964950562
aI0
aasS'plan'
p104
Ns.