(dp1
S'search_time'
p2
(lp3
(lp4
F23.376587152481079
aI-1
aa(lp5
F42.618463039398193
aI-1
aa(lp6
F61.649642944335938
aI-1
aa(lp7
F78.936652898788452
aI-1
aa(lp8
F93.266414880752563
aI-1
aa(lp9
F112.25207781791687
aI-1
aa(lp10
F124.62014865875244
aI-1
aa(lp11
F142.84126663208008
aI-1
aa(lp12
F161.71597957611084
aI-1
aa(lp13
F179.84695672988892
aI-1
aa(lp14
F200.08461880683899
aI-1
aa(lp15
F219.22559785842896
aI-1
aa(lp16
F234.14182901382446
aI-1
aa(lp17
F253.11039113998413
aI-1
aa(lp18
F268.58262419700623
aI-1
aa(lp19
F280.64277315139771
aI-1
aa(lp20
F298.27549815177917
aI0
aa(lp21
F312.61101007461548
aI0
aa(lp22
F336.66409707069397
aI0
aa(lp23
F357.15965414047241
aI0
aa(lp24
F374.65154623985291
aI0
aa(lp25
F391.5741810798645
aI0
aa(lp26
F410.84127306938171
aI0
aa(lp27
F427.89982914924622
aI0
aa(lp28
F447.22657918930054
aI0
aa(lp29
F463.76257014274597
aI0
aa(lp30
F482.29669523239136
aI0
aa(lp31
F502.43767523765564
aI0
aa(lp32
F523.39808034896851
aI0
aa(lp33
F542.15140128135681
aI0
aa(lp34
F560.51003932952881
aI0
aa(lp35
F576.99799346923828
aI0
aa(lp36
F592.25043654441833
aI0
aa(lp37
F613.35474157333374
aI0
aa(lp38
F633.72603750228882
aI0
aa(lp39
F654.50631761550903
aI0
aa(lp40
F673.32853269577026
aI0
aa(lp41
F694.83722257614136
aI0
aa(lp42
F709.81291961669922
aI0
aa(lp43
F724.80010366439819
aI0
aa(lp44
F731.80704760551453
aI0
aa(lp45
F749.87273859977722
aI0
aa(lp46
F770.7313826084137
aI0
aa(lp47
F789.05676579475403
aI0
aa(lp48
F805.67172193527222
aI0
aa(lp49
F823.39630389213562
aI0
aa(lp50
F842.34578800201416
aI0
aa(lp51
F860.99048399925232
aI0
aa(lp52
F878.55046582221985
aI0
aa(lp53
F892.73751473426819
aI0
aa(lp54
F913.28323769569397
aI0
aa(lp55
F931.24823760986328
aI0
aa(lp56
F947.3581326007843
aI0
aa(lp57
F963.35022377967834
aI0
aa(lp58
F978.4144868850708
aI0
aa(lp59
F997.81095385551453
aI0
aa(lp60
F1018.8247120380402
aI0
aa(lp61
F1038.3774080276489
aI0
aa(lp62
F1061.8405442237854
aI0
aa(lp63
F1075.8562321662903
aI0
aa(lp64
F1099.5156321525574
aI0
aa(lp65
F1112.6517112255096
aI0
aa(lp66
F1134.7558143138885
aI0
aa(lp67
F1149.493958234787
aI0
aa(lp68
F1164.9806611537933
aI0
aa(lp69
F1177.1359851360321
aI0
aa(lp70
F1195.7131690979004
aI0
aa(lp71
F1213.6410801410675
aI0
aa(lp72
F1231.7711951732635
aI0
aa(lp73
F1248.4142451286316
aI0
aa(lp74
F1267.3658990859985
aI0
aa(lp75
F1291.3707571029663
aI0
aa(lp76
F1313.1725211143494
aI0
aa(lp77
F1329.4365282058716
aI0
aa(lp78
F1345.1176252365112
aI0
aa(lp79
F1366.8178372383118
aI0
aa(lp80
F1387.2458741664886
aI0
aa(lp81
F1403.970269203186
aI0
aa(lp82
F1414.8029901981354
aI0
aa(lp83
F1429.9800450801849
aI0
aa(lp84
F1444.924644947052
aI0
aa(lp85
F1461.9225060939789
aI0
aa(lp86
F1479.017468214035
aI0
aa(lp87
F1496.178512096405
aI0
aa(lp88
F1518.2461340427399
aI0
aa(lp89
F1537.6419939994812
aI0
aa(lp90
F1554.1041629314423
aI0
aa(lp91
F1578.5468969345093
aI0
aa(lp92
F1597.9029068946838
aI0
aa(lp93
F1616.2962727546692
aI0
aa(lp94
F1638.674412727356
aI0
aa(lp95
F1657.4397196769714
aI0
aa(lp96
F1679.5684757232666
aI0
aa(lp97
F1698.7592978477478
aI0
aa(lp98
F1719.1713738441467
aI0
aa(lp99
F1736.1066787242889
aI0
aa(lp100
F1759.4243767261505
aI0
aa(lp101
F1781.6549255847931
aI0
aa(lp102
F1795.7972545623779
aI0
aa(lp103
F1812.3141906261444
aI0
aasS'plan'
p104
Ns.