(dp1
S'search_time'
p2
(lp3
(lp4
F14.67402195930481
aI-2
aa(lp5
F28.541189908981323
aI-2
aa(lp6
F41.022711992263794
aI-1
aa(lp7
F51.985716104507446
aI-1
aa(lp8
F70.73571515083313
aI-1
aa(lp9
F87.872672080993652
aI-1
aa(lp10
F102.91643714904785
aI0
aa(lp11
F115.75408625602722
aI0
aa(lp12
F131.20522141456604
aI0
aa(lp13
F143.9710054397583
aI0
aa(lp14
F161.47693538665771
aI0
aa(lp15
F176.8014395236969
aI0
aa(lp16
F192.63132452964783
aI0
aa(lp17
F205.67979764938354
aI0
aa(lp18
F218.4132387638092
aI0
aa(lp19
F233.21975493431091
aI0
aa(lp20
F249.00699496269226
aI0
aa(lp21
F260.73415899276733
aI0
aa(lp22
F275.85141682624817
aI0
aa(lp23
F293.61567974090576
aI0
aa(lp24
F307.28790473937988
aI0
aa(lp25
F318.53666377067566
aI0
aa(lp26
F333.89044666290283
aI0
aa(lp27
F348.83758473396301
aI0
aa(lp28
F366.08202266693115
aI0
aa(lp29
F381.47699069976807
aI0
aa(lp30
F396.38055062294006
aI0
aa(lp31
F407.84682369232178
aI0
aa(lp32
F422.17913174629211
aI0
aa(lp33
F440.52205777168274
aI0
aa(lp34
F468.47488975524902
aI1
aa(lp35
F482.51029396057129
aI1
aa(lp36
F507.2211799621582
aI1
aa(lp37
F528.17690300941467
aI1
aa(lp38
F543.87096190452576
aI1
aa(lp39
F559.71570301055908
aI1
aa(lp40
F572.78279495239258
aI1
aa(lp41
F588.35796689987183
aI1
aa(lp42
F606.00815987586975
aI1
aa(lp43
F621.16141486167908
aI1
aa(lp44
F634.71812176704407
aI1
aa(lp45
F653.92157959938049
aI1
aa(lp46
F674.70058560371399
aI1
aa(lp47
F693.1417396068573
aI1
aa(lp48
F709.48717164993286
aI1
aa(lp49
F721.81596565246582
aI1
aa(lp50
F735.1099796295166
aI1
aa(lp51
F746.15126442909241
aI1
aa(lp52
F764.85192537307739
aI1
aa(lp53
F779.37785148620605
aI1
aa(lp54
F795.55723857879639
aI1
aa(lp55
F808.8635356426239
aI1
aa(lp56
F821.93384075164795
aI1
aa(lp57
F834.74512887001038
aI1
aa(lp58
F848.98275804519653
aI1
aa(lp59
F866.58771705627441
aI1
aa(lp60
F879.68523502349854
aI1
aa(lp61
F894.95312786102295
aI1
aa(lp62
F908.52776479721069
aI1
aa(lp63
F920.85658288002014
aI1
aa(lp64
F935.17588686943054
aI1
aa(lp65
F951.68982696533203
aI1
aa(lp66
F970.33371496200562
aI1
aa(lp67
F983.62723803520203
aI1
aa(lp68
F996.93541312217712
aI1
aa(lp69
F1013.030492067337
aI1
aa(lp70
F1028.7192170619965
aI1
aa(lp71
F1043.6874508857727
aI1
aa(lp72
F1056.735533952713
aI1
aa(lp73
F1092.3484470844269
aI1
aa(lp74
F1113.0266270637512
aI1
aa(lp75
F1129.44100522995
aI1
aa(lp76
F1146.5901772975922
aI1
aa(lp77
F1159.5596051216125
aI1
aa(lp78
F1176.8598120212555
aI1
aa(lp79
F1188.8554899692535
aI1
aa(lp80
F1208.2853200435638
aI1
aa(lp81
F1224.5146360397339
aI1
aa(lp82
F1251.5651249885559
aI1
aa(lp83
F1264.3099439144135
aI1
aa(lp84
F1275.8889877796173
aI1
aa(lp85
F1289.5452826023102
aI1
aa(lp86
F1308.9120156764984
aI1
aa(lp87
F1324.9279978275299
aI1
aa(lp88
F1344.3535149097443
aI1
aa(lp89
F1359.2860798835754
aI1
aa(lp90
F1374.8991048336029
aI1
aa(lp91
F1390.6319777965546
aI1
aa(lp92
F1406.2247986793518
aI1
aa(lp93
F1423.0243847370148
aI1
aa(lp94
F1447.4932768344879
aI1
aa(lp95
F1459.7984519004822
aI1
aa(lp96
F1473.1184589862823
aI1
aa(lp97
F1485.1195719242096
aI1
aa(lp98
F1505.7434029579163
aI1
aa(lp99
F1521.6185028553009
aI1
aa(lp100
F1537.8070828914642
aI1
aa(lp101
F1550.5851390361786
aI1
aa(lp102
F1566.2132079601288
aI1
aa(lp103
F1579.2259600162506
aI1
aasS'plan'
p104
Ns.