(dp1
S'search_time'
p2
(lp3
(lp4
F21.03885293006897
aI-2
aa(lp5
F42.430384874343872
aI-2
aa(lp6
F59.376175880432129
aI-2
aa(lp7
F76.324625730514526
aI-2
aa(lp8
F101.17418479919434
aI-2
aa(lp9
F124.93363881111145
aI-2
aa(lp10
F148.91086077690125
aI-2
aa(lp11
F172.05679273605347
aI-2
aa(lp12
F190.9554705619812
aI-2
aa(lp13
F208.88442039489746
aI-2
aa(lp14
F225.26663637161255
aI-2
aa(lp15
F241.17704844474792
aI-2
aa(lp16
F264.75108361244202
aI-1
aa(lp17
F286.02649760246277
aI-1
aa(lp18
F308.68889951705933
aI-1
aa(lp19
F334.02379059791565
aI-1
aa(lp20
F355.72028374671936
aI-1
aa(lp21
F370.89456462860107
aI-1
aa(lp22
F390.12582564353943
aI-1
aa(lp23
F407.16216373443604
aI-1
aa(lp24
F430.33998584747314
aI-1
aa(lp25
F450.62943482398987
aI-1
aa(lp26
F468.0550639629364
aI-1
aa(lp27
F483.75116991996765
aI-1
aa(lp28
F504.58892798423767
aI-1
aa(lp29
F527.26491689682007
aI-1
aa(lp30
F540.92276692390442
aI-1
aa(lp31
F552.8940007686615
aI-1
aa(lp32
F573.57655668258667
aI-1
aa(lp33
F591.34385561943054
aI-1
aa(lp34
F609.32016754150391
aI-1
aa(lp35
F632.65571355819702
aI-1
aa(lp36
F657.9569685459137
aI-1
aa(lp37
F679.07001256942749
aI-1
aa(lp38
F693.57800555229187
aI-1
aa(lp39
F712.40479946136475
aI-1
aa(lp40
F726.71882748603821
aI-1
aa(lp41
F755.00397253036499
aI0
aa(lp42
F770.18883967399597
aI0
aa(lp43
F782.57349061965942
aI0
aa(lp44
F807.8876097202301
aI0
aa(lp45
F826.48622679710388
aI0
aa(lp46
F845.61109590530396
aI0
aa(lp47
F862.84580183029175
aI0
aa(lp48
F879.33978581428528
aI0
aa(lp49
F903.87834692001343
aI0
aa(lp50
F920.89510703086853
aI0
aa(lp51
F941.5024950504303
aI0
aa(lp52
F968.12474203109741
aI0
aa(lp53
F992.78050208091736
aI0
aa(lp54
F1019.4630291461945
aI0
aa(lp55
F1036.9158091545105
aI0
aa(lp56
F1063.7580692768097
aI0
aa(lp57
F1089.38796043396
aI0
aa(lp58
F1108.2189524173737
aI0
aa(lp59
F1127.0233902931213
aI0
aa(lp60
F1143.8049201965332
aI0
aa(lp61
F1160.9601843357086
aI0
aa(lp62
F1182.2863092422485
aI0
aa(lp63
F1206.5049953460693
aI0
aa(lp64
F1220.0338933467865
aI0
aa(lp65
F1235.2785503864288
aI0
aa(lp66
F1251.3070523738861
aI0
aa(lp67
F1265.6654274463654
aI0
aa(lp68
F1290.4578502178192
aI0
aa(lp69
F1313.6906731128693
aI0
aa(lp70
F1334.9290540218353
aI0
aa(lp71
F1353.8498780727386
aI0
aa(lp72
F1375.5687260627747
aI0
aa(lp73
F1395.6128211021423
aI0
aa(lp74
F1408.1455092430115
aI0
aa(lp75
F1422.9055664539337
aI0
aa(lp76
F1441.4853653907776
aI0
aa(lp77
F1456.7873742580414
aI0
aa(lp78
F1471.5412082672119
aI0
aa(lp79
F1485.0288972854614
aI0
aa(lp80
F1506.4363453388214
aI0
aa(lp81
F1528.759200334549
aI0
aa(lp82
F1543.2575194835663
aI0
aa(lp83
F1563.8732635974884
aI0
aa(lp84
F1587.8649187088013
aI0
aa(lp85
F1607.4437847137451
aI0
aa(lp86
F1628.6327147483826
aI0
aa(lp87
F1647.7070817947388
aI0
aa(lp88
F1666.3609027862549
aI0
aa(lp89
F1685.1871457099915
aI0
aa(lp90
F1703.7060258388519
aI0
aa(lp91
F1723.2074007987976
aI0
aa(lp92
F1747.2299616336823
aI0
aa(lp93
F1764.8818736076355
aI0
aa(lp94
F1781.7849106788635
aI0
aa(lp95
F1798.2912905216217
aI0
aa(lp96
F1814.1559355258942
aI0
aa(lp97
F1834.565628528595
aI0
aa(lp98
F1852.7795214653015
aI0
aa(lp99
F1868.7439844608307
aI0
aa(lp100
F1883.6076414585114
aI0
aa(lp101
F1897.1466155052185
aI0
aa(lp102
F1913.1410043239594
aI0
aa(lp103
F1933.1251063346863
aI0
aasS'plan'
p104
Ns.