(dp1
S'search_time'
p2
(lp3
(lp4
F14.521185874938965
aI-2
aa(lp5
F28.386818885803223
aI-2
aa(lp6
F58.208421945571899
aI-1
aa(lp7
F86.406666040420532
aI-1
aa(lp8
F108.50509715080261
aI-1
aa(lp9
F142.60381627082825
aI0
aa(lp10
F177.11163425445557
aI0
aa(lp11
F208.77272415161133
aI0
aa(lp12
F227.4454710483551
aI0
aa(lp13
F249.05809497833252
aI0
aa(lp14
F277.84436583518982
aI0
aa(lp15
F303.13084769248962
aI0
aa(lp16
F328.37493777275085
aI0
aa(lp17
F361.60652685165405
aI0
aa(lp18
F384.8128387928009
aI0
aa(lp19
F408.46440196037292
aI0
aa(lp20
F428.92628288269043
aI0
aa(lp21
F447.83488798141479
aI0
aa(lp22
F471.82924199104309
aI0
aa(lp23
F492.14908289909363
aI0
aa(lp24
F517.45831871032715
aI0
aa(lp25
F533.88732576370239
aI0
aa(lp26
F560.25106167793274
aI0
aa(lp27
F582.60048770904541
aI0
aa(lp28
F610.01820588111877
aI0
aa(lp29
F635.53039407730103
aI0
aa(lp30
F661.42671704292297
aI0
aa(lp31
F684.85395383834839
aI0
aa(lp32
F709.69511079788208
aI0
aa(lp33
F731.78924870491028
aI0
aa(lp34
F757.57202076911926
aI0
aa(lp35
F777.53211688995361
aI0
aa(lp36
F794.84372091293335
aI0
aa(lp37
F811.30506491661072
aI0
aa(lp38
F833.56589198112488
aI0
aa(lp39
F862.52236890792847
aI0
aa(lp40
F891.45756506919861
aI0
aa(lp41
F915.67189908027649
aI0
aa(lp42
F934.87343692779541
aI0
aa(lp43
F952.98109292984009
aI0
aa(lp44
F977.7705979347229
aI0
aa(lp45
F1001.2825880050659
aI0
aa(lp46
F1030.5370049476624
aI0
aa(lp47
F1052.5865280628204
aI0
aa(lp48
F1070.2069971561432
aI0
aa(lp49
F1084.2963650226593
aI0
aa(lp50
F1106.1002199649811
aI0
aa(lp51
F1122.0403728485107
aI0
aa(lp52
F1142.5833339691162
aI0
aa(lp53
F1173.9704177379608
aI0
aa(lp54
F1190.123795747757
aI0
aa(lp55
F1210.2530708312988
aI0
aa(lp56
F1236.8842949867249
aI0
aa(lp57
F1256.0807678699493
aI0
aa(lp58
F1282.0489099025726
aI0
aa(lp59
F1298.2999029159546
aI0
aa(lp60
F1322.8238699436188
aI0
aa(lp61
F1350.368213891983
aI0
aa(lp62
F1375.6241097450256
aI0
aa(lp63
F1399.3588876724243
aI0
aa(lp64
F1425.1744196414948
aI0
aa(lp65
F1447.5402386188507
aI0
aa(lp66
F1468.4735646247864
aI0
aa(lp67
F1496.5435636043549
aI0
aa(lp68
F1524.6676757335663
aI0
aa(lp69
F1551.8053069114685
aI1
aa(lp70
F1566.9631249904633
aI1
aa(lp71
F1594.8257641792297
aI1
aa(lp72
F1621.1291053295135
aI1
aa(lp73
F1645.1368341445923
aI1
aa(lp74
F1662.8632941246033
aI1
aa(lp75
F1678.5395090579987
aI1
aa(lp76
F1705.3989269733429
aI1
aa(lp77
F1726.1015901565552
aI1
aa(lp78
F1754.1973361968994
aI1
aa(lp79
F1772.657573223114
aI1
aa(lp80
F1788.6718361377716
aI1
aa(lp81
F1814.5225839614868
aI1
aa(lp82
F1836.8621549606323
aI1
aa(lp83
F1862.2799000740051
aI1
aa(lp84
F1883.1861162185669
aI1
aa(lp85
F1901.9271321296692
aI1
aa(lp86
F1923.5779480934143
aI1
aa(lp87
F1943.2196440696716
aI1
aa(lp88
F1967.6335599422455
aI1
aa(lp89
F1991.0311079025269
aI1
aa(lp90
F2014.047425031662
aI1
aa(lp91
F2035.3874471187592
aI1
aa(lp92
F2058.9871771335602
aI1
aa(lp93
F2072.8417270183563
aI1
aa(lp94
F2092.3200118541718
aI1
aa(lp95
F2107.3750767707825
aI1
aa(lp96
F2135.0780057907104
aI1
aa(lp97
F2159.8331158161163
aI1
aa(lp98
F2184.6633276939392
aI1
aa(lp99
F2205.815126657486
aI1
aa(lp100
F2225.181444644928
aI1
aa(lp101
F2243.1242527961731
aI1
aa(lp102
F2270.3105096817017
aI1
aa(lp103
F2291.7842917442322
aI1
aasS'plan'
p104
Ns.