(dp1
S'search_time'
p2
(lp3
(lp4
F22.112833976745605
aI-2
aa(lp5
F42.795058012008667
aI-2
aa(lp6
F64.08626389503479
aI-2
aa(lp7
F84.155410051345825
aI-2
aa(lp8
F106.61521315574646
aI-1
aa(lp9
F129.86646509170532
aI-1
aa(lp10
F153.98197913169861
aI-1
aa(lp11
F182.01812624931335
aI-1
aa(lp12
F211.54271101951599
aI-1
aa(lp13
F240.92139482498169
aI0
aa(lp14
F265.50549578666687
aI0
aa(lp15
F288.10727667808533
aI0
aa(lp16
F304.1763174533844
aI0
aa(lp17
F328.03243732452393
aI0
aa(lp18
F358.35932922363281
aI0
aa(lp19
F380.19616007804871
aI0
aa(lp20
F400.08935809135437
aI0
aa(lp21
F414.97952914237976
aI0
aa(lp22
F438.95458316802979
aI0
aa(lp23
F459.27487111091614
aI0
aa(lp24
F476.04189610481262
aI0
aa(lp25
F498.49862813949585
aI0
aa(lp26
F524.92831301689148
aI0
aa(lp27
F546.12604713439941
aI0
aa(lp28
F572.17165803909302
aI0
aa(lp29
F595.55646705627441
aI0
aa(lp30
F623.15430283546448
aI0
aa(lp31
F645.72477769851685
aI0
aa(lp32
F670.2872269153595
aI0
aa(lp33
F697.03267693519592
aI0
aa(lp34
F725.41342091560364
aI0
aa(lp35
F748.90727281570435
aI0
aa(lp36
F776.61797785758972
aI0
aa(lp37
F796.90056395530701
aI0
aa(lp38
F819.717777967453
aI0
aa(lp39
F838.34242391586304
aI0
aa(lp40
F864.78712010383606
aI0
aa(lp41
F888.22487592697144
aI0
aa(lp42
F916.00337982177734
aI0
aa(lp43
F936.92518496513367
aI0
aa(lp44
F959.43861508369446
aI0
aa(lp45
F982.98156499862671
aI0
aa(lp46
F1017.3326001167297
aI0
aa(lp47
F1037.9806299209595
aI0
aa(lp48
F1052.7914488315582
aI0
aa(lp49
F1074.9432418346405
aI0
aa(lp50
F1104.6609590053558
aI0
aa(lp51
F1119.4906039237976
aI0
aa(lp52
F1143.267609834671
aI0
aa(lp53
F1165.7649869918823
aI0
aa(lp54
F1195.6906068325043
aI0
aa(lp55
F1215.5550158023834
aI0
aa(lp56
F1240.5576238632202
aI0
aa(lp57
F1257.7962708473206
aI0
aa(lp58
F1275.1858987808228
aI0
aa(lp59
F1294.0417509078979
aI0
aa(lp60
F1324.1315009593964
aI0
aa(lp61
F1343.0716760158539
aI0
aa(lp62
F1367.454066991806
aI0
aa(lp63
F1387.2428510189056
aI0
aa(lp64
F1413.8212549686432
aI0
aa(lp65
F1452.9048919677734
aI0
aa(lp66
F1474.680349111557
aI0
aa(lp67
F1493.1736440658569
aI0
aa(lp68
F1511.0456500053406
aI0
aa(lp69
F1526.1283981800079
aI0
aa(lp70
F1544.0784361362457
aI0
aa(lp71
F1567.2214221954346
aI0
aa(lp72
F1592.5255551338196
aI0
aa(lp73
F1622.3147330284119
aI0
aa(lp74
F1643.7469849586487
aI0
aa(lp75
F1666.4120290279388
aI0
aa(lp76
F1696.4010648727417
aI0
aa(lp77
F1710.2865169048309
aI0
aa(lp78
F1734.1625418663025
aI0
aa(lp79
F1756.1068098545074
aI0
aa(lp80
F1772.7094287872314
aI0
aa(lp81
F1798.2266736030579
aI0
aa(lp82
F1828.2159316539764
aI0
aa(lp83
F1848.6052987575531
aI0
aa(lp84
F1876.0244047641754
aI0
aa(lp85
F1898.5447378158569
aI0
aa(lp86
F1923.7501885890961
aI0
aa(lp87
F1948.3218107223511
aI0
aa(lp88
F1978.0398325920105
aI0
aa(lp89
F2005.2850525379181
aI0
aa(lp90
F2028.4434723854065
aI0
aa(lp91
F2049.7143633365631
aI0
aa(lp92
F2076.1168284416199
aI0
aa(lp93
F2099.2009754180908
aI0
aa(lp94
F2124.1749522686005
aI0
aa(lp95
F2144.3105013370514
aI0
aa(lp96
F2169.1650323867798
aI0
aa(lp97
F2200.8563113212585
aI0
aa(lp98
F2224.3090782165527
aI0
aa(lp99
F2250.5243821144104
aI0
aa(lp100
F2269.4741270542145
aI0
aa(lp101
F2291.7181630134583
aI0
aa(lp102
F2312.5187599658966
aI0
aa(lp103
F2332.9885067939758
aI0
aasS'plan'
p104
Ns.