(dp1
S'search_time'
p2
(lp3
(lp4
F30.784013986587524
aI-2
aa(lp5
F61.543665885925293
aI-2
aa(lp6
F92.816998958587646
aI-2
aa(lp7
F123.09425187110901
aI-2
aa(lp8
F151.03819394111633
aI-2
aa(lp9
F179.09424901008606
aI-2
aa(lp10
F201.37843012809753
aI-2
aa(lp11
F223.28164315223694
aI-2
aa(lp12
F252.31864905357361
aI-1
aa(lp13
F280.2190899848938
aI-1
aa(lp14
F301.48382806777954
aI-1
aa(lp15
F321.20131015777588
aI-1
aa(lp16
F339.45546913146973
aI-1
aa(lp17
F358.54838514328003
aI-1
aa(lp18
F380.08490419387817
aI-1
aa(lp19
F406.80887317657471
aI-1
aa(lp20
F424.15279126167297
aI-1
aa(lp21
F458.73677515983582
aI-1
aa(lp22
F478.64122700691223
aI-1
aa(lp23
F496.45172500610352
aI-1
aa(lp24
F513.58943700790405
aI-1
aa(lp25
F536.29524707794189
aI-1
aa(lp26
F564.50735211372375
aI-1
aa(lp27
F599.56966805458069
aI-1
aa(lp28
F626.86552095413208
aI-1
aa(lp29
F653.36218690872192
aI-1
aa(lp30
F682.79748892784119
aI-1
aa(lp31
F715.83280301094055
aI-1
aa(lp32
F740.41926407814026
aI-1
aa(lp33
F761.96337199211121
aI-1
aa(lp34
F785.12386393547058
aI-1
aa(lp35
F806.57805204391479
aI-1
aa(lp36
F834.40406107902527
aI-1
aa(lp37
F852.93169522285461
aI-1
aa(lp38
F879.12406921386719
aI-1
aa(lp39
F896.50157713890076
aI-1
aa(lp40
F931.25574421882629
aI-1
aa(lp41
F963.20741605758667
aI-1
aa(lp42
F982.74548602104187
aI-1
aa(lp43
F1000.3264489173889
aI-1
aa(lp44
F1019.7486498355865
aI-1
aa(lp45
F1037.6470098495483
aI-1
aa(lp46
F1059.8554158210754
aI-1
aa(lp47
F1091.4103808403015
aI-1
aa(lp48
F1125.247927904129
aI-1
aa(lp49
F1158.706946849823
aI-1
aa(lp50
F1191.6471478939056
aI-1
aa(lp51
F1222.9785249233246
aI-1
aa(lp52
F1257.74684882164
aI-1
aa(lp53
F1279.7098858356476
aI-1
aa(lp54
F1308.2799718379974
aI-1
aa(lp55
F1334.6307618618011
aI-1
aa(lp56
F1357.7253258228302
aI-1
aa(lp57
F1378.4120037555695
aI-1
aa(lp58
F1408.8190076351166
aI-1
aa(lp59
F1438.1851725578308
aI-1
aa(lp60
F1465.5438714027405
aI-1
aa(lp61
F1491.1278033256531
aI-1
aa(lp62
F1529.0270752906799
aI-1
aa(lp63
F1551.9512212276459
aI-1
aa(lp64
F1582.7585642337799
aI-1
aa(lp65
F1611.0948812961578
aI-1
aa(lp66
F1636.6817512512207
aI-1
aa(lp67
F1665.0692462921143
aI-1
aa(lp68
F1691.3762784004211
aI-1
aa(lp69
F1708.7177634239197
aI-1
aa(lp70
F1735.2888023853302
aI-1
aa(lp71
F1760.6963694095612
aI-1
aa(lp72
F1787.4132163524628
aI-1
aa(lp73
F1808.5972833633423
aI-1
aa(lp74
F1835.4287774562836
aI-1
aa(lp75
F1858.7102394104004
aI-1
aa(lp76
F1890.9005515575409
aI-1
aa(lp77
F1927.1233215332031
aI-1
aa(lp78
F1944.4667816162109
aI-1
aa(lp79
F1971.9910304546356
aI-1
aa(lp80
F1996.5303835868835
aI-1
aa(lp81
F2022.0183715820312
aI-1
aa(lp82
F2050.7165105342865
aI-1
aa(lp83
F2077.9035184383392
aI-1
aa(lp84
F2105.4961364269257
aI-1
aa(lp85
F2126.1197295188904
aI-1
aa(lp86
F2151.117472410202
aI-1
aa(lp87
F2176.5711615085602
aI-1
aa(lp88
F2202.6661696434021
aI-1
aa(lp89
F2218.1003847122192
aI-1
aa(lp90
F2247.6647746562958
aI-1
aa(lp91
F2269.2672114372253
aI-1
aa(lp92
F2287.7496182918549
aI-1
aa(lp93
F2310.9381852149963
aI-1
aa(lp94
F2339.1795082092285
aI-1
aa(lp95
F2352.8108003139496
aI-1
aa(lp96
F2383.2865011692047
aI-1
aa(lp97
F2402.682697057724
aI-1
aa(lp98
F2437.2185978889465
aI-1
aa(lp99
F2457.7629437446594
aI-1
aa(lp100
F2480.3516788482666
aI-1
aa(lp101
F2504.4366588592529
aI-1
aa(lp102
F2535.6833968162537
aI-1
aa(lp103
F2552.6703457832336
aI-1
aasS'plan'
p104
Ns.