(dp1
S'search_time'
p2
(lp3
(lp4
F18.556852102279663
aI-1
aa(lp5
F35.304145097732544
aI-1
aa(lp6
F55.449382066726685
aI-1
aa(lp7
F74.771669864654541
aI-1
aa(lp8
F103.88953495025635
aI0
aa(lp9
F130.39993095397949
aI0
aa(lp10
F146.30050182342529
aI0
aa(lp11
F167.93697786331177
aI0
aa(lp12
F189.37451791763306
aI0
aa(lp13
F209.16052985191345
aI0
aa(lp14
F229.88297390937805
aI0
aa(lp15
F247.75498485565186
aI0
aa(lp16
F267.30920171737671
aI0
aa(lp17
F284.44924759864807
aI0
aa(lp18
F298.48807263374329
aI0
aa(lp19
F315.31770968437195
aI0
aa(lp20
F341.58860969543457
aI0
aa(lp21
F365.76066970825195
aI0
aa(lp22
F386.45249772071838
aI1
aa(lp23
F403.76724863052368
aI1
aa(lp24
F422.17992448806763
aI1
aa(lp25
F445.71976828575134
aI1
aa(lp26
F461.1790132522583
aI1
aa(lp27
F475.46372103691101
aI1
aa(lp28
F497.20677709579468
aI1
aa(lp29
F505.8708930015564
aI1
aa(lp30
F520.55850505828857
aI1
aa(lp31
F542.54655718803406
aI1
aa(lp32
F561.11991906166077
aI1
aa(lp33
F577.33131909370422
aI1
aa(lp34
F602.92732715606689
aI1
aa(lp35
F626.82629609107971
aI1
aa(lp36
F650.27217698097229
aI1
aa(lp37
F662.0498468875885
aI1
aa(lp38
F678.62672996520996
aI1
aa(lp39
F693.46267104148865
aI1
aa(lp40
F714.36661791801453
aI1
aa(lp41
F735.38798999786377
aI1
aa(lp42
F752.46503710746765
aI1
aa(lp43
F765.83818411827087
aI1
aa(lp44
F785.21338415145874
aI1
aa(lp45
F801.40242028236389
aI1
aa(lp46
F813.40134811401367
aI1
aa(lp47
F834.79178810119629
aI1
aa(lp48
F849.06308317184448
aI1
aa(lp49
F873.30723714828491
aI1
aa(lp50
F886.61567616462708
aI1
aa(lp51
F898.33827710151672
aI1
aa(lp52
F919.82838201522827
aI1
aa(lp53
F941.08067989349365
aI1
aa(lp54
F964.7665388584137
aI1
aa(lp55
F985.75604581832886
aI1
aa(lp56
F1003.6975257396698
aI1
aa(lp57
F1016.7735936641693
aI1
aa(lp58
F1034.1192898750305
aI1
aa(lp59
F1049.8207938671112
aI1
aa(lp60
F1067.3711338043213
aI1
aa(lp61
F1083.8333506584167
aI1
aa(lp62
F1107.1047396659851
aI1
aa(lp63
F1126.9523687362671
aI1
aa(lp64
F1147.888965845108
aI1
aa(lp65
F1166.0166237354279
aI1
aa(lp66
F1187.3473837375641
aI1
aa(lp67
F1201.9843847751617
aI1
aa(lp68
F1244.0892567634583
aI1
aa(lp69
F1264.5000805854797
aI1
aa(lp70
F1285.0996634960175
aI1
aa(lp71
F1303.47509765625
aI1
aa(lp72
F1320.5962777137756
aI1
aa(lp73
F1361.1731986999512
aI1
aa(lp74
F1378.237902879715
aI1
aa(lp75
F1392.4750618934631
aI1
aa(lp76
F1412.1457347869873
aI1
aa(lp77
F1429.1951446533203
aI1
aa(lp78
F1449.1432025432587
aI1
aa(lp79
F1470.7286264896393
aI1
aa(lp80
F1492.6072895526886
aI1
aa(lp81
F1516.2450366020203
aI1
aa(lp82
F1535.5473234653473
aI1
aa(lp83
F1552.4211723804474
aI1
aa(lp84
F1573.3544504642487
aI1
aa(lp85
F1592.8499054908752
aI1
aa(lp86
F1609.7206785678864
aI1
aa(lp87
F1631.8334267139435
aI1
aa(lp88
F1655.5606167316437
aI1
aa(lp89
F1685.6438047885895
aI1
aa(lp90
F1700.0580458641052
aI1
aa(lp91
F1727.6567378044128
aI1
aa(lp92
F1752.3065416812897
aI1
aa(lp93
F1771.0587108135223
aI1
aa(lp94
F1797.2884368896484
aI1
aa(lp95
F1819.5407810211182
aI1
aa(lp96
F1839.2238290309906
aI1
aa(lp97
F1862.3392810821533
aI1
aa(lp98
F1882.7135012149811
aI1
aa(lp99
F1907.7543370723724
aI1
aa(lp100
F1924.4167051315308
aI1
aa(lp101
F1942.5082221031189
aI1
aa(lp102
F1972.9822762012482
aI1
aa(lp103
F2001.7099392414093
aI1
aasS'plan'
p104
Ns.