(dp1
S'search_time'
p2
(lp3
(lp4
F12.134037971496582
aI-2
aa(lp5
F23.481569051742554
aI-2
aa(lp6
F46.390958070755005
aI-1
aa(lp7
F67.210417985916138
aI-1
aa(lp8
F84.879031896591187
aI-1
aa(lp9
F110.84731507301331
aI-1
aa(lp10
F128.38576316833496
aI-1
aa(lp11
F144.77862811088562
aI-1
aa(lp12
F160.29173922538757
aI-1
aa(lp13
F176.12324738502502
aI-1
aa(lp14
F197.94527649879456
aI-1
aa(lp15
F213.55241942405701
aI-1
aa(lp16
F239.62092638015747
aI0
aa(lp17
F260.93728423118591
aI0
aa(lp18
F283.17627620697021
aI0
aa(lp19
F299.79324531555176
aI0
aa(lp20
F325.49987626075745
aI0
aa(lp21
F346.42531228065491
aI0
aa(lp22
F371.05810141563416
aI0
aa(lp23
F391.82496953010559
aI0
aa(lp24
F412.47212052345276
aI0
aa(lp25
F433.1147665977478
aI0
aa(lp26
F456.13833260536194
aI0
aa(lp27
F475.56000971794128
aI0
aa(lp28
F497.60519576072693
aI0
aa(lp29
F518.96447658538818
aI0
aa(lp30
F540.33950257301331
aI0
aa(lp31
F559.38020968437195
aI0
aa(lp32
F582.51358151435852
aI0
aa(lp33
F607.14103055000305
aI0
aa(lp34
F624.60539841651917
aI0
aa(lp35
F640.18163824081421
aI0
aa(lp36
F664.36458230018616
aI0
aa(lp37
F682.82945919036865
aI0
aa(lp38
F703.9371292591095
aI0
aa(lp39
F728.82047414779663
aI1
aa(lp40
F747.23320817947388
aI1
aa(lp41
F769.33886623382568
aI1
aa(lp42
F781.86144423484802
aI1
aa(lp43
F796.29702925682068
aI1
aa(lp44
F816.57103633880615
aI1
aa(lp45
F829.95448446273804
aI1
aa(lp46
F850.91360759735107
aI1
aa(lp47
F871.73406958580017
aI1
aa(lp48
F892.54146575927734
aI1
aa(lp49
F910.24085974693298
aI1
aa(lp50
F924.84274888038635
aI1
aa(lp51
F941.21959090232849
aI1
aa(lp52
F964.60440373420715
aI1
aa(lp53
F983.66628360748291
aI1
aa(lp54
F1000.0182905197144
aI1
aa(lp55
F1018.6770834922791
aI1
aa(lp56
F1035.4282155036926
aI1
aa(lp57
F1055.450516462326
aI1
aa(lp58
F1076.1346504688263
aI1
aa(lp59
F1092.3963263034821
aI1
aa(lp60
F1115.3631901741028
aI1
aa(lp61
F1129.4601261615753
aI1
aa(lp62
F1149.5311191082001
aI1
aa(lp63
F1161.938056230545
aI1
aa(lp64
F1178.9186971187592
aI1
aa(lp65
F1193.5917210578918
aI1
aa(lp66
F1217.4590659141541
aI1
aa(lp67
F1230.3985259532928
aI1
aa(lp68
F1253.9994919300079
aI1
aa(lp69
F1277.0577158927917
aI1
aa(lp70
F1298.3831717967987
aI1
aa(lp71
F1316.5875868797302
aI1
aa(lp72
F1332.7391738891602
aI1
aa(lp73
F1353.9738919734955
aI1
aa(lp74
F1370.922297000885
aI1
aa(lp75
F1390.4410398006439
aI1
aa(lp76
F1404.4593327045441
aI1
aa(lp77
F1417.2471516132355
aI1
aa(lp78
F1440.0780317783356
aI1
aa(lp79
F1459.5465397834778
aI1
aa(lp80
F1479.0669147968292
aI1
aa(lp81
F1498.6051597595215
aI1
aa(lp82
F1515.0016417503357
aI1
aa(lp83
F1532.3798377513885
aI1
aa(lp84
F1549.943256855011
aI1
aa(lp85
F1561.6017887592316
aI1
aa(lp86
F1578.8076918125153
aI1
aa(lp87
F1596.7995479106903
aI1
aa(lp88
F1612.9813559055328
aI1
aa(lp89
F1629.1686568260193
aI1
aa(lp90
F1645.398090839386
aI1
aa(lp91
F1668.8090267181396
aI1
aa(lp92
F1681.4604709148407
aI1
aa(lp93
F1698.0647571086884
aI1
aa(lp94
F1720.5672850608826
aI1
aa(lp95
F1741.5424492359161
aI1
aa(lp96
F1753.5587062835693
aI1
aa(lp97
F1772.5211992263794
aI1
aa(lp98
F1786.8048732280731
aI1
aa(lp99
F1798.6705741882324
aI1
aa(lp100
F1812.5092723369598
aI1
aa(lp101
F1823.6869821548462
aI1
aa(lp102
F1845.1314082145691
aI1
aa(lp103
F1864.3297080993652
aI1
aasS'plan'
p104
Ns.