(dp1
S'search_time'
p2
(lp3
(lp4
F14.461802959442139
aI-1
aa(lp5
F27.175838947296143
aI-1
aa(lp6
F42.756344795227051
aI-1
aa(lp7
F59.296022891998291
aI-1
aa(lp8
F75.143104791641235
aI-1
aa(lp9
F90.952986717224121
aI-1
aa(lp10
F103.66252851486206
aI-1
aa(lp11
F124.43163156509399
aI-1
aa(lp12
F148.48495149612427
aI-1
aa(lp13
F163.48190355300903
aI-1
aa(lp14
F179.38245272636414
aI-1
aa(lp15
F192.16294693946838
aI-1
aa(lp16
F206.25142383575439
aI-1
aa(lp17
F228.62060904502869
aI-1
aa(lp18
F243.75530600547791
aI-1
aa(lp19
F260.77516794204712
aI-1
aa(lp20
F283.15143394470215
aI-1
aa(lp21
F296.96566891670227
aI-1
aa(lp22
F310.331139087677
aI-1
aa(lp23
F321.57563018798828
aI-1
aa(lp24
F341.73647809028625
aI-1
aa(lp25
F355.8085401058197
aI0
aa(lp26
F369.69783329963684
aI0
aa(lp27
F381.52912425994873
aI0
aa(lp28
F407.03856110572815
aI0
aa(lp29
F423.75733113288879
aI0
aa(lp30
F444.56880235671997
aI0
aa(lp31
F464.11212730407715
aI0
aa(lp32
F483.78432035446167
aI0
aa(lp33
F506.16199851036072
aI0
aa(lp34
F527.91716432571411
aI0
aa(lp35
F547.94111132621765
aI0
aa(lp36
F561.51037621498108
aI0
aa(lp37
F579.09219622612
aI0
aa(lp38
F591.08963537216187
aI0
aa(lp39
F607.20550036430359
aI0
aa(lp40
F628.75422143936157
aI0
aa(lp41
F645.07764339447021
aI0
aa(lp42
F664.80554342269897
aI0
aa(lp43
F679.95531129837036
aI0
aa(lp44
F697.93716025352478
aI0
aa(lp45
F720.08004021644592
aI0
aa(lp46
F736.24003720283508
aI0
aa(lp47
F757.09342932701111
aI0
aa(lp48
F770.22117233276367
aI0
aa(lp49
F781.80377411842346
aI0
aa(lp50
F801.84038519859314
aI0
aa(lp51
F820.38150215148926
aI0
aa(lp52
F841.66308116912842
aI0
aa(lp53
F860.32234215736389
aI0
aa(lp54
F881.2755491733551
aI0
aa(lp55
F901.05596113204956
aI0
aa(lp56
F918.66929912567139
aI0
aa(lp57
F934.31496810913086
aI0
aa(lp58
F951.04061603546143
aI0
aa(lp59
F965.97831892967224
aI0
aa(lp60
F980.75064873695374
aI0
aa(lp61
F995.76107478141785
aI0
aa(lp62
F1014.6213517189026
aI0
aa(lp63
F1032.2505078315735
aI0
aa(lp64
F1045.9044878482819
aI0
aa(lp65
F1058.7050368785858
aI0
aa(lp66
F1084.2302467823029
aI0
aa(lp67
F1097.2109107971191
aI0
aa(lp68
F1111.0281529426575
aI0
aa(lp69
F1122.3926520347595
aI0
aa(lp70
F1139.8911950588226
aI0
aa(lp71
F1155.8952000141144
aI0
aa(lp72
F1170.428022146225
aI0
aa(lp73
F1193.6182081699371
aI0
aa(lp74
F1211.2751302719116
aI0
aa(lp75
F1224.7201783657074
aI0
aa(lp76
F1246.0089213848114
aI0
aa(lp77
F1266.8519003391266
aI0
aa(lp78
F1292.5368702411652
aI0
aa(lp79
F1310.1762261390686
aI0
aa(lp80
F1326.6062543392181
aI0
aa(lp81
F1341.4612884521484
aI0
aa(lp82
F1360.7179095745087
aI0
aa(lp83
F1377.3757944107056
aI0
aa(lp84
F1401.1122992038727
aI0
aa(lp85
F1416.718709230423
aI0
aa(lp86
F1436.0335252285004
aI0
aa(lp87
F1455.1333832740784
aI0
aa(lp88
F1475.2708210945129
aI0
aa(lp89
F1486.9948060512543
aI0
aa(lp90
F1504.5637230873108
aI0
aa(lp91
F1521.978844165802
aI0
aa(lp92
F1540.2183952331543
aI0
aa(lp93
F1555.8302202224731
aI0
aa(lp94
F1574.3650481700897
aI0
aa(lp95
F1585.9166080951691
aI0
aa(lp96
F1606.7425479888916
aI0
aa(lp97
F1626.076984167099
aI0
aa(lp98
F1639.7214820384979
aI0
aa(lp99
F1663.7269921302795
aI0
aa(lp100
F1677.5534460544586
aI0
aa(lp101
F1689.5925221443176
aI0
aa(lp102
F1704.8545053005219
aI0
aa(lp103
F1719.305180311203
aI0
aasS'plan'
p104
Ns.