ccopy_reg
_reconstructor
p1
(csklearn.preprocessing.data
StandardScaler
p2
c__builtin__
object
p3
NtRp4
(dp5
S'mean_'
p6
cnumpy.core.multiarray
_reconstruct
p7
(cnumpy
ndarray
p8
(I0
tS'b'
tRp9
(I1
(I3
tcnumpy
dtype
p10
(S'f8'
I0
I1
tRp11
(I3
S'<'
NNNI-1
I-1
I0
tbI00
S'^\xcb\x18\xbe\xe1\xaa\xd5\xbfn\xc4\x9cpL\xf1\xe4?u\xd7.g\x87\xd1\t@'
tbsS'with_mean'
p12
I01
sS'var_'
p13
g7
(g8
(I0
tS'b'
tRp14
(I1
(I3
tg11
I00
S'\xd9\xa8n\x8c+]\xf1?3\x02\x01w\xc9Z\xe4?l\xd2x\xe8&-\n@'
tbsS'scale_'
p15
g7
(g8
(I0
tS'b'
tRp16
(I1
(I3
tg11
I00
S'V\xc5?\xd5\x03\xab\xf0?\xe3\xfcY\xd5\x82\x85\xe9?\xdb\xfb\x9f(,\xf1\xfc?'
tbsS'with_std'
p17
I01
sS'n_samples_seen_'
p18
I2494
sS'_sklearn_version'
p19
S'0.19.1'
p20
sS'copy'
p21
I01
sb.