(dp0
S'box'
p1
(lp2
F0.51561166
aF0.0570478679
aF0.000463844721
asS'gan'
p3
(lp4
I0
aF0.6078431372549019
aI0
asS'planner'
p5
(lp6
I0
aI0
aI1
asS'place'
p7
(lp8
I0
aF0.0
aF0.0
asS'pick'
p9
(lp10
F0.8901960784313725
aF0.6745098039215687
aI0
asS'regr_search'
p11
cnumpy.core.multiarray
_reconstruct
p12
(cnumpy
ndarray
p13
(I0
tp14
S'b'
p15
tp16
Rp17
(I1
(I3
tp18
cnumpy
dtype
p19
(S'f8'
p20
I0
I1
tp21
Rp22
(I3
S'<'
p23
NNNI-1
I-1
I0
tp24
bI00
S'u\xfc\xd9\xaa\x7f1\xe4?<w\x1d\xb8\xeb\x08\xc9?H3\xb1\x01["\xb3?'
p25
tp26
bsS'static_order'
p27
g12
(g13
(I0
tp28
g15
tp29
Rp30
(I1
(I3
tp31
g22
I00
S'`\xcbk\xd4.t\xab?\xf8\xfb\xb0\x88\xbet\xb6?\xe0\xfc\x85uI\xda\xd5?'
p32
tp33
bsS'finite_lib'
p34
g12
(g13
(I0
tp35
g15
tp36
Rp37
(I1
(I3
tp38
g22
I00
S'0<\xc8\xbd\x08\xce\xde?Q\x18y\xa5\xef\xc6\xed?\x08F\xea6\xf8\r\xbc?'
p39
tp40
bsS'soap'
p41
(lp42
I1
aI0
aI0
as.